ARM GAS  C:\Users\073be\AppData\Local\Temp\ccwGO8Fo.s 			page 1


   1              		.cpu cortex-m4
   2              		.eabi_attribute 27, 1
   3              		.eabi_attribute 28, 1
   4              		.eabi_attribute 20, 1
   5              		.eabi_attribute 21, 1
   6              		.eabi_attribute 23, 3
   7              		.eabi_attribute 24, 1
   8              		.eabi_attribute 25, 1
   9              		.eabi_attribute 26, 1
  10              		.eabi_attribute 30, 1
  11              		.eabi_attribute 34, 1
  12              		.eabi_attribute 18, 4
  13              		.file	"robo_init.cpp"
  14              		.text
  15              	.Ltext0:
  16              		.cfi_sections	.debug_frame
  17              		.section	.text._ZN12Discrete_PIDD2Ev,"axG",%progbits,_ZN12Discrete_PIDD5Ev,comdat
  18              		.align	1
  19              		.weak	_ZN12Discrete_PIDD2Ev
  20              		.syntax unified
  21              		.thumb
  22              		.thumb_func
  23              		.fpu fpv4-sp-d16
  25              	_ZN12Discrete_PIDD2Ev:
  26              	.LFB151:
  27              		.file 1 "Core/Inc\\utils/pid_algorithms.h"
   1:Core/Inc\utils/pid_algorithms.h **** #ifndef _PID_ALGORITHMS_H_
   2:Core/Inc\utils/pid_algorithms.h **** #define _PID_ALGORITHMS_H_
   3:Core/Inc\utils/pid_algorithms.h **** 
   4:Core/Inc\utils/pid_algorithms.h **** #include <stdint.h>
   5:Core/Inc\utils/pid_algorithms.h **** 
   6:Core/Inc\utils/pid_algorithms.h **** class PID_Algorithm
   7:Core/Inc\utils/pid_algorithms.h **** {
   8:Core/Inc\utils/pid_algorithms.h **** public:
   9:Core/Inc\utils/pid_algorithms.h ****         PID_Algorithm() { set_PID(0,0,0); }
  10:Core/Inc\utils/pid_algorithms.h ****         PID_Algorithm(float p, float i, float d) { set_PID(p,i,d); }
  11:Core/Inc\utils/pid_algorithms.h ****         virtual float compute(float error, uint32_t dt_millis) = 0;
  12:Core/Inc\utils/pid_algorithms.h **** 
  13:Core/Inc\utils/pid_algorithms.h ****         void set_P(float p) { p_ = p; }
  14:Core/Inc\utils/pid_algorithms.h ****         void set_I(float i) { i_ = i; }
  15:Core/Inc\utils/pid_algorithms.h ****         void set_D(float d) { d_ = d; }
  16:Core/Inc\utils/pid_algorithms.h ****         void set_PID(float p, float i, float d) {
  17:Core/Inc\utils/pid_algorithms.h ****                 set_P(p);
  18:Core/Inc\utils/pid_algorithms.h ****                 set_I(i);
  19:Core/Inc\utils/pid_algorithms.h ****                 set_D(d);
  20:Core/Inc\utils/pid_algorithms.h ****         }
  21:Core/Inc\utils/pid_algorithms.h ****         float get_P() { return p_; }
  22:Core/Inc\utils/pid_algorithms.h ****         float get_I() { return i_; }
  23:Core/Inc\utils/pid_algorithms.h ****         float get_D() { return d_; }
  24:Core/Inc\utils/pid_algorithms.h **** 
  25:Core/Inc\utils/pid_algorithms.h ****         void set_Limits(float max_out, float min_out) {
  26:Core/Inc\utils/pid_algorithms.h ****                 max_ = max_out;
  27:Core/Inc\utils/pid_algorithms.h ****                 min_ = min_out;
  28:Core/Inc\utils/pid_algorithms.h ****         }
  29:Core/Inc\utils/pid_algorithms.h **** 
  30:Core/Inc\utils/pid_algorithms.h ****         float get_Upper() { return max_; }
  31:Core/Inc\utils/pid_algorithms.h ****         float get_Lower() { return min_; }
ARM GAS  C:\Users\073be\AppData\Local\Temp\ccwGO8Fo.s 			page 2


  32:Core/Inc\utils/pid_algorithms.h **** 
  33:Core/Inc\utils/pid_algorithms.h ****         virtual ~PID_Algorithm() { }
  34:Core/Inc\utils/pid_algorithms.h **** 
  35:Core/Inc\utils/pid_algorithms.h **** protected:
  36:Core/Inc\utils/pid_algorithms.h ****         float p_, i_, d_;
  37:Core/Inc\utils/pid_algorithms.h ****         float max_, min_;
  38:Core/Inc\utils/pid_algorithms.h **** };
  39:Core/Inc\utils/pid_algorithms.h **** 
  40:Core/Inc\utils/pid_algorithms.h **** class Discrete_PID : public PID_Algorithm
  41:Core/Inc\utils/pid_algorithms.h **** {
  42:Core/Inc\utils/pid_algorithms.h **** public:
  43:Core/Inc\utils/pid_algorithms.h ****         Discrete_PID(float p, float i, float d) :
  44:Core/Inc\utils/pid_algorithms.h ****         PID_Algorithm(p, i, d) {
  45:Core/Inc\utils/pid_algorithms.h ****                 l_output_ = 0;
  46:Core/Inc\utils/pid_algorithms.h ****                 l_err_ = 0;
  47:Core/Inc\utils/pid_algorithms.h ****                 ll_err_ = 0;
  48:Core/Inc\utils/pid_algorithms.h ****         }
  49:Core/Inc\utils/pid_algorithms.h ****         Discrete_PID() {
  50:Core/Inc\utils/pid_algorithms.h ****                 l_output_ = 0;
  51:Core/Inc\utils/pid_algorithms.h ****                 l_err_ = 0;
  52:Core/Inc\utils/pid_algorithms.h ****                 ll_err_ = 0;
  53:Core/Inc\utils/pid_algorithms.h ****         }
  54:Core/Inc\utils/pid_algorithms.h ****         Discrete_PID(Discrete_PID &&) = default;
  55:Core/Inc\utils/pid_algorithms.h ****         Discrete_PID(const Discrete_PID &) = default;
  56:Core/Inc\utils/pid_algorithms.h ****         Discrete_PID &operator=(Discrete_PID &&) = default;
  57:Core/Inc\utils/pid_algorithms.h ****         Discrete_PID &operator=(const Discrete_PID &) = default;
  58:Core/Inc\utils/pid_algorithms.h ****         ~Discrete_PID() { }
  28              		.loc 1 58 0
  29              		.cfi_startproc
  30              		@ args = 0, pretend = 0, frame = 0
  31              		@ frame_needed = 0, uses_anonymous_args = 0
  32              		@ link register save eliminated.
  33              	.LVL0:
  34              		.loc 1 58 0
  35 0000 7047     		bx	lr
  36              		.cfi_endproc
  37              	.LFE151:
  39              		.weak	_ZN12Discrete_PIDD1Ev
  40              		.thumb_set _ZN12Discrete_PIDD1Ev,_ZN12Discrete_PIDD2Ev
  41              		.section	.text._ZN12Discrete_PID7computeEfm,"axG",%progbits,_ZN12Discrete_PID7computeEfm,comdat
  42              		.align	1
  43              		.weak	_ZN12Discrete_PID7computeEfm
  44              		.syntax unified
  45              		.thumb
  46              		.thumb_func
  47              		.fpu fpv4-sp-d16
  49              	_ZN12Discrete_PID7computeEfm:
  50              	.LFB154:
  59:Core/Inc\utils/pid_algorithms.h **** 
  60:Core/Inc\utils/pid_algorithms.h ****         /* *** PID Algorithm Description ***
  61:Core/Inc\utils/pid_algorithms.h ****          * 1) Discrete PID control Algorithm
  62:Core/Inc\utils/pid_algorithms.h ****          * 2) Integrator Method : Forward Euler
  63:Core/Inc\utils/pid_algorithms.h ****          * 3) //! Filtered Derivative not used
  64:Core/Inc\utils/pid_algorithms.h ****          * 4) Output Limited
  65:Core/Inc\utils/pid_algorithms.h ****          * 5) Form : Parallel
  66:Core/Inc\utils/pid_algorithms.h ****          * 6) Compensator Formula : Dz = P + I*Ts/(z-1) + D*(z-1)/(Ts*z)
  67:Core/Inc\utils/pid_algorithms.h ****          * 7) In Time Domain :
ARM GAS  C:\Users\073be\AppData\Local\Temp\ccwGO8Fo.s 			page 3


  68:Core/Inc\utils/pid_algorithms.h ****          *      y(t) - y(t-1) = a*x(t) + b*x(t-1) + c*x(t-2)
  69:Core/Inc\utils/pid_algorithms.h ****          *      where,
  70:Core/Inc\utils/pid_algorithms.h ****          *              a = P + D/Ts
  71:Core/Inc\utils/pid_algorithms.h ****          *              b = -P + I*Ts - 2*D/Ts
  72:Core/Inc\utils/pid_algorithms.h ****          *              c = D/Ts
  73:Core/Inc\utils/pid_algorithms.h ****          */
  74:Core/Inc\utils/pid_algorithms.h ****         float compute(float error, uint32_t dt_millis) {
  51              		.loc 1 74 0
  52              		.cfi_startproc
  53              		@ args = 0, pretend = 0, frame = 0
  54              		@ frame_needed = 0, uses_anonymous_args = 0
  55              		@ link register save eliminated.
  56              	.LVL1:
  75:Core/Inc\utils/pid_algorithms.h ****                 float Ts = (float)dt_millis / 1000.0;
  57              		.loc 1 75 0
  58 0000 07EE901A 		vmov	s15, r1	@ int
  59 0004 F8EE676A 		vcvt.f32.u32	s13, s15
  60 0008 DFED217A 		vldr.32	s15, .L11
  61 000c 86EEA77A 		vdiv.f32	s14, s13, s15
  62              	.LVL2:
  63              	.LBB124:
  64              	.LBB125:
  21:Core/Inc\utils/pid_algorithms.h ****         float get_I() { return i_; }
  65              		.loc 1 21 0
  66 0010 90ED016A 		vldr.32	s12, [r0, #4]
  67              	.LVL3:
  68              	.LBE125:
  69              	.LBE124:
  70              	.LBB126:
  71              	.LBB127:
  22:Core/Inc\utils/pid_algorithms.h ****         float get_D() { return d_; }
  72              		.loc 1 22 0
  73 0014 D0ED025A 		vldr.32	s11, [r0, #8]
  74              	.LVL4:
  75              	.LBE127:
  76              	.LBE126:
  77              	.LBB128:
  78              	.LBB129:
  23:Core/Inc\utils/pid_algorithms.h **** 
  79              		.loc 1 23 0
  80 0018 D0ED037A 		vldr.32	s15, [r0, #12]
  81              	.LVL5:
  82              	.LBE129:
  83              	.LBE128:
  76:Core/Inc\utils/pid_algorithms.h ****                 
  77:Core/Inc\utils/pid_algorithms.h ****                 float P = get_P();
  78:Core/Inc\utils/pid_algorithms.h ****                 float I = get_I();
  79:Core/Inc\utils/pid_algorithms.h ****                 float D_by_Ts = get_D() / Ts;
  84              		.loc 1 79 0
  85 001c C7EE876A 		vdiv.f32	s13, s15, s14
  86              	.LVL6:
  80:Core/Inc\utils/pid_algorithms.h **** 
  81:Core/Inc\utils/pid_algorithms.h ****                 float a = P + D_by_Ts;
  87              		.loc 1 81 0
  88 0020 76EE867A 		vadd.f32	s15, s13, s12
  89              	.LVL7:
  82:Core/Inc\utils/pid_algorithms.h ****                 float b = -P + I * Ts - 2 * D_by_Ts;
ARM GAS  C:\Users\073be\AppData\Local\Temp\ccwGO8Fo.s 			page 4


  90              		.loc 1 82 0
  91 0024 27EE257A 		vmul.f32	s14, s14, s11
  92              	.LVL8:
  93 0028 37EE467A 		vsub.f32	s14, s14, s12
  94 002c 36EEA66A 		vadd.f32	s12, s13, s13
  95 0030 37EE467A 		vsub.f32	s14, s14, s12
  96              	.LVL9:
  83:Core/Inc\utils/pid_algorithms.h ****                 float c = D_by_Ts;
  84:Core/Inc\utils/pid_algorithms.h **** 
  85:Core/Inc\utils/pid_algorithms.h ****                 l_output_ += a * error + b * l_err_ + c * ll_err_;
  97              		.loc 1 85 0
  98 0034 67EE807A 		vmul.f32	s15, s15, s0
  99              	.LVL10:
 100 0038 90ED076A 		vldr.32	s12, [r0, #28]
 101 003c 26EE077A 		vmul.f32	s14, s12, s14
 102              	.LVL11:
 103 0040 77EE877A 		vadd.f32	s15, s15, s14
 104 0044 90ED087A 		vldr.32	s14, [r0, #32]
 105 0048 67EE266A 		vmul.f32	s13, s14, s13
 106              	.LVL12:
 107 004c 77EEA67A 		vadd.f32	s15, s15, s13
 108 0050 90ED067A 		vldr.32	s14, [r0, #24]
 109 0054 77EE877A 		vadd.f32	s15, s15, s14
 110 0058 C0ED067A 		vstr.32	s15, [r0, #24]
 111              	.LVL13:
 112              	.LBB130:
 113              	.LBB131:
  30:Core/Inc\utils/pid_algorithms.h ****         float get_Lower() { return min_; }
 114              		.loc 1 30 0
 115 005c 90ED047A 		vldr.32	s14, [r0, #16]
 116              	.LVL14:
 117              	.LBE131:
 118              	.LBE130:
  86:Core/Inc\utils/pid_algorithms.h **** 
  87:Core/Inc\utils/pid_algorithms.h ****                 if (l_output_ > get_Upper()) {
 119              		.loc 1 87 0
 120 0060 F4EEC77A 		vcmpe.f32	s15, s14
 121 0064 F1EE10FA 		vmrs	APSR_nzcv, FPSCR
 122 0068 09DC     		bgt	.L10
 123              	.LVL15:
 124              	.LBB132:
 125              	.LBB133:
  31:Core/Inc\utils/pid_algorithms.h **** 
 126              		.loc 1 31 0
 127 006a 90ED057A 		vldr.32	s14, [r0, #20]
 128              	.LVL16:
 129              	.LBE133:
 130              	.LBE132:
  88:Core/Inc\utils/pid_algorithms.h ****                         l_output_ = get_Upper();
  89:Core/Inc\utils/pid_algorithms.h ****                 }
  90:Core/Inc\utils/pid_algorithms.h ****                 else if (l_output_ < get_Lower()) {
 131              		.loc 1 90 0
 132 006e F4EEC77A 		vcmpe.f32	s15, s14
 133 0072 F1EE10FA 		vmrs	APSR_nzcv, FPSCR
 134 0076 04D5     		bpl	.L5
  91:Core/Inc\utils/pid_algorithms.h ****                         l_output_ = get_Lower();
 135              		.loc 1 91 0
ARM GAS  C:\Users\073be\AppData\Local\Temp\ccwGO8Fo.s 			page 5


 136 0078 80ED067A 		vstr.32	s14, [r0, #24]
 137 007c 01E0     		b	.L5
 138              	.L10:
  88:Core/Inc\utils/pid_algorithms.h ****                         l_output_ = get_Upper();
 139              		.loc 1 88 0
 140 007e 80ED067A 		vstr.32	s14, [r0, #24]
 141              	.L5:
  92:Core/Inc\utils/pid_algorithms.h ****                 }
  93:Core/Inc\utils/pid_algorithms.h **** 
  94:Core/Inc\utils/pid_algorithms.h ****                 ll_err_ = l_err_;
 142              		.loc 1 94 0
 143 0082 80ED086A 		vstr.32	s12, [r0, #32]
  95:Core/Inc\utils/pid_algorithms.h ****                 l_err_ = error;
 144              		.loc 1 95 0
 145 0086 80ED070A 		vstr.32	s0, [r0, #28]
  96:Core/Inc\utils/pid_algorithms.h **** 
  97:Core/Inc\utils/pid_algorithms.h ****                 return l_output_;
  98:Core/Inc\utils/pid_algorithms.h ****         }
 146              		.loc 1 98 0
 147 008a 90ED060A 		vldr.32	s0, [r0, #24]
 148              	.LVL17:
 149 008e 7047     		bx	lr
 150              	.L12:
 151              		.align	2
 152              	.L11:
 153 0090 00007A44 		.word	1148846080
 154              		.cfi_endproc
 155              	.LFE154:
 157              		.section	.text._ZL8pid_Initv,"ax",%progbits
 158              		.align	1
 159              		.syntax unified
 160              		.thumb
 161              		.thumb_func
 162              		.fpu fpv4-sp-d16
 164              	_ZL8pid_Initv:
 165              	.LFB183:
 166              		.file 2 "Core/Src/robot/robo_init.cpp"
   1:Core/Src/robot/robo_init.cpp **** /*
   2:Core/Src/robot/robo_init.cpp ****  * robo_init.c
   3:Core/Src/robot/robo_init.cpp ****  *
   4:Core/Src/robot/robo_init.cpp ****  * Created : 10/1/2018
   5:Core/Src/robot/robo_init.cpp ****  */
   6:Core/Src/robot/robo_init.cpp **** 
   7:Core/Src/robot/robo_init.cpp **** #include "robo_init.h"
   8:Core/Src/robot/robo_init.cpp **** #include "pid_algorithms.h"
   9:Core/Src/robot/robo_init.cpp **** #include "pid.h"
  10:Core/Src/robot/robo_init.cpp **** 
  11:Core/Src/robot/robo_init.cpp **** static Wheel_Config gWheel_Configurations[4];
  12:Core/Src/robot/robo_init.cpp **** Wheel gWheels[4];
  13:Core/Src/robot/robo_init.cpp **** 
  14:Core/Src/robot/robo_init.cpp **** static Discrete_PID gDisc_PID[4];
  15:Core/Src/robot/robo_init.cpp **** static PID gPID[4];
  16:Core/Src/robot/robo_init.cpp **** 
  17:Core/Src/robot/robo_init.cpp **** static float gI_Factor = 2;
  18:Core/Src/robot/robo_init.cpp **** 
  19:Core/Src/robot/robo_init.cpp **** static void wheel_init(void);
  20:Core/Src/robot/robo_init.cpp **** static void pid_Init();
ARM GAS  C:\Users\073be\AppData\Local\Temp\ccwGO8Fo.s 			page 6


  21:Core/Src/robot/robo_init.cpp **** 
  22:Core/Src/robot/robo_init.cpp **** /**
  23:Core/Src/robot/robo_init.cpp ****  * @brief Function that initializes all the required components for the robot
  24:Core/Src/robot/robo_init.cpp ****  *        to run
  25:Core/Src/robot/robo_init.cpp ****  * @retval None
  26:Core/Src/robot/robo_init.cpp ****  * 
  27:Core/Src/robot/robo_init.cpp ****  * Tasks performed by this function
  28:Core/Src/robot/robo_init.cpp ****  * 1) Call the devices initializations in correct order
  29:Core/Src/robot/robo_init.cpp ****  * 2) Call the software initializations for utilities like pid and filters
  30:Core/Src/robot/robo_init.cpp ****  * 3) Starts the timers to run them in respective configured modes like PWM
  31:Core/Src/robot/robo_init.cpp ****  *    mode and the Encoder mode
  32:Core/Src/robot/robo_init.cpp ****  */
  33:Core/Src/robot/robo_init.cpp **** void robo_Init()
  34:Core/Src/robot/robo_init.cpp **** {
  35:Core/Src/robot/robo_init.cpp ****         wheel_init();
  36:Core/Src/robot/robo_init.cpp **** 
  37:Core/Src/robot/robo_init.cpp ****         HAL_TIM_Base_Start(&htim8);
  38:Core/Src/robot/robo_init.cpp **** 
  39:Core/Src/robot/robo_init.cpp ****         HAL_TIM_PWM_Start(gWheel_Configurations[0].htim, TIM_CHANNEL_1);
  40:Core/Src/robot/robo_init.cpp ****         HAL_TIM_PWM_Start(gWheel_Configurations[1].htim, TIM_CHANNEL_2);
  41:Core/Src/robot/robo_init.cpp ****         HAL_TIM_PWM_Start(gWheel_Configurations[2].htim, TIM_CHANNEL_3);
  42:Core/Src/robot/robo_init.cpp ****         HAL_TIM_PWM_Start(gWheel_Configurations[3].htim, TIM_CHANNEL_4);
  43:Core/Src/robot/robo_init.cpp **** 
  44:Core/Src/robot/robo_init.cpp ****         HAL_TIM_Encoder_Start(gWheel_Configurations[0].henc, TIM_CHANNEL_ALL);
  45:Core/Src/robot/robo_init.cpp ****         HAL_TIM_Encoder_Start(gWheel_Configurations[1].henc, TIM_CHANNEL_ALL);
  46:Core/Src/robot/robo_init.cpp ****         HAL_TIM_Encoder_Start(gWheel_Configurations[2].henc, TIM_CHANNEL_ALL);
  47:Core/Src/robot/robo_init.cpp ****         HAL_TIM_Encoder_Start(gWheel_Configurations[3].henc, TIM_CHANNEL_ALL);
  48:Core/Src/robot/robo_init.cpp **** }
  49:Core/Src/robot/robo_init.cpp **** 
  50:Core/Src/robot/robo_init.cpp **** 
  51:Core/Src/robot/robo_init.cpp **** /**
  52:Core/Src/robot/robo_init.cpp ****  * @brief Function that initializes all the required components for the wheels
  53:Core/Src/robot/robo_init.cpp ****  *        of the robot
  54:Core/Src/robot/robo_init.cpp ****  * @retval None
  55:Core/Src/robot/robo_init.cpp ****  * 
  56:Core/Src/robot/robo_init.cpp ****  * Tasks performed by this function
  57:Core/Src/robot/robo_init.cpp ****  * 1) Assigns appropriate IDs to each wheel
  58:Core/Src/robot/robo_init.cpp ****  * 2) Give each wheel the respective radius
  59:Core/Src/robot/robo_init.cpp ****  * 3) Assign a timer and a channel to each wheel for it's motor to run in PWM
  60:Core/Src/robot/robo_init.cpp ****  *    mode. A timer is shared among all the available wheels since we have
  61:Core/Src/robot/robo_init.cpp ****  *    four wheels.
  62:Core/Src/robot/robo_init.cpp ****  * 4) Assigns the ppr of each wheel's encoder
  63:Core/Src/robot/robo_init.cpp ****  * 5) Assigns the direction pins for each motor's direction
  64:Core/Src/robot/robo_init.cpp ****  * 6) Assigns timer for each wheel's encoder
  65:Core/Src/robot/robo_init.cpp ****  */
  66:Core/Src/robot/robo_init.cpp **** static void wheel_init(void)
  67:Core/Src/robot/robo_init.cpp **** {
  68:Core/Src/robot/robo_init.cpp ****         int i;
  69:Core/Src/robot/robo_init.cpp ****         for (i = 0; i < 4; i++)
  70:Core/Src/robot/robo_init.cpp ****         {
  71:Core/Src/robot/robo_init.cpp ****                 gWheel_Configurations[i].id = i;
  72:Core/Src/robot/robo_init.cpp ****                 gWheel_Configurations[i].radius = 0.067;
  73:Core/Src/robot/robo_init.cpp ****                 // All motors are connected to same timer : TIM8
  74:Core/Src/robot/robo_init.cpp ****                 gWheel_Configurations[i].htim = &htim8;
  75:Core/Src/robot/robo_init.cpp ****                 //! Need to re-calculate this value
  76:Core/Src/robot/robo_init.cpp ****                 gWheel_Configurations[i].max_omega = 70;
  77:Core/Src/robot/robo_init.cpp ****                 //! Need to make sure the following value is correct
ARM GAS  C:\Users\073be\AppData\Local\Temp\ccwGO8Fo.s 			page 7


  78:Core/Src/robot/robo_init.cpp ****                 gWheel_Configurations[i].enc_ppr = 249.6;
  79:Core/Src/robot/robo_init.cpp ****         }
  80:Core/Src/robot/robo_init.cpp ****         gWheel_Configurations[0].in1_port = GPIOD;
  81:Core/Src/robot/robo_init.cpp ****         gWheel_Configurations[0].in1_pin = GPIO_PIN_3; 
  82:Core/Src/robot/robo_init.cpp ****         gWheel_Configurations[0].in2_port = GPIOD;
  83:Core/Src/robot/robo_init.cpp ****         gWheel_Configurations[0].in2_pin = GPIO_PIN_1;
  84:Core/Src/robot/robo_init.cpp ****         gWheel_Configurations[0].channel = TIM_CHANNEL_1;
  85:Core/Src/robot/robo_init.cpp ****         gWheel_Configurations[0].henc = &htim2;
  86:Core/Src/robot/robo_init.cpp **** 
  87:Core/Src/robot/robo_init.cpp ****         gWheel_Configurations[1].in1_port = GPIOD;
  88:Core/Src/robot/robo_init.cpp ****         gWheel_Configurations[1].in1_pin = GPIO_PIN_14;
  89:Core/Src/robot/robo_init.cpp ****         gWheel_Configurations[1].in2_port = GPIOD;
  90:Core/Src/robot/robo_init.cpp ****         gWheel_Configurations[1].in2_pin = GPIO_PIN_5;
  91:Core/Src/robot/robo_init.cpp ****         gWheel_Configurations[1].channel = TIM_CHANNEL_2;
  92:Core/Src/robot/robo_init.cpp ****         gWheel_Configurations[1].henc = &htim3;
  93:Core/Src/robot/robo_init.cpp ****         
  94:Core/Src/robot/robo_init.cpp ****         gWheel_Configurations[2].in1_port = GPIOD;
  95:Core/Src/robot/robo_init.cpp ****         gWheel_Configurations[2].in1_pin = GPIO_PIN_7;
  96:Core/Src/robot/robo_init.cpp ****         gWheel_Configurations[2].in2_port = GPIOD;
  97:Core/Src/robot/robo_init.cpp ****         gWheel_Configurations[2].in2_pin = GPIO_PIN_15;
  98:Core/Src/robot/robo_init.cpp ****         gWheel_Configurations[2].channel = TIM_CHANNEL_3;
  99:Core/Src/robot/robo_init.cpp ****         gWheel_Configurations[2].henc = &htim1;
 100:Core/Src/robot/robo_init.cpp **** 
 101:Core/Src/robot/robo_init.cpp ****         gWheel_Configurations[3].in1_port = GPIOC;
 102:Core/Src/robot/robo_init.cpp ****         gWheel_Configurations[3].in1_pin = GPIO_PIN_12;
 103:Core/Src/robot/robo_init.cpp ****         gWheel_Configurations[3].in2_port = GPIOC;
 104:Core/Src/robot/robo_init.cpp ****         gWheel_Configurations[3].in2_pin = GPIO_PIN_10;
 105:Core/Src/robot/robo_init.cpp ****         gWheel_Configurations[3].channel = TIM_CHANNEL_4;
 106:Core/Src/robot/robo_init.cpp ****         gWheel_Configurations[3].henc = &htim4;
 107:Core/Src/robot/robo_init.cpp **** 
 108:Core/Src/robot/robo_init.cpp ****         for (uint8_t i = 0; i < 4; ++i) {
 109:Core/Src/robot/robo_init.cpp ****                 gWheels[i].set_Config(&gWheel_Configurations[i]);
 110:Core/Src/robot/robo_init.cpp ****         }
 111:Core/Src/robot/robo_init.cpp ****         // Initializes PID parameters for all wheels
 112:Core/Src/robot/robo_init.cpp ****         pid_Init();
 113:Core/Src/robot/robo_init.cpp **** }
 114:Core/Src/robot/robo_init.cpp **** 
 115:Core/Src/robot/robo_init.cpp **** /**
 116:Core/Src/robot/robo_init.cpp ****  * @brief Function that initializes all the required components for the wheel's
 117:Core/Src/robot/robo_init.cpp ****  *        pid controller
 118:Core/Src/robot/robo_init.cpp ****  * @retval None
 119:Core/Src/robot/robo_init.cpp ****  * 
 120:Core/Src/robot/robo_init.cpp ****  * Tasks performed by this function
 121:Core/Src/robot/robo_init.cpp ****  * 1) Assigns gains for PID controller of each wheel
 122:Core/Src/robot/robo_init.cpp ****  * 2) Assigns separate PID controllers for each wheel
 123:Core/Src/robot/robo_init.cpp ****  */
 124:Core/Src/robot/robo_init.cpp **** static void pid_Init()
 125:Core/Src/robot/robo_init.cpp **** {
 167              		.loc 2 125 0
 168              		.cfi_startproc
 169              		@ args = 0, pretend = 0, frame = 0
 170              		@ frame_needed = 0, uses_anonymous_args = 0
 171              		@ link register save eliminated.
 172 0000 30B4     		push	{r4, r5}
 173              	.LCFI0:
 174              		.cfi_def_cfa_offset 8
 175              		.cfi_offset 4, -8
ARM GAS  C:\Users\073be\AppData\Local\Temp\ccwGO8Fo.s 			page 8


 176              		.cfi_offset 5, -4
 177              	.LVL18:
 178              	.LBB134:
 179              	.LBB135:
 180              	.LBB136:
  13:Core/Inc\utils/pid_algorithms.h ****         void set_I(float i) { i_ = i; }
 181              		.loc 1 13 0
 182 0002 1C4B     		ldr	r3, .L17
 183 0004 1C4A     		ldr	r2, .L17+4
 184 0006 5A60     		str	r2, [r3, #4]	@ float
 185              	.LVL19:
 186              	.LBE136:
 187              	.LBE135:
 188              	.LBB137:
 189              	.LBB138:
  14:Core/Inc\utils/pid_algorithms.h ****         void set_D(float d) { d_ = d; }
 190              		.loc 1 14 0
 191 0008 1C4C     		ldr	r4, .L17+8
 192 000a 9C60     		str	r4, [r3, #8]	@ float
 193              	.LVL20:
 194              	.LBE138:
 195              	.LBE137:
 196              	.LBB139:
 197              	.LBB140:
  15:Core/Inc\utils/pid_algorithms.h ****         void set_PID(float p, float i, float d) {
 198              		.loc 1 15 0
 199 000c 0020     		movs	r0, #0
 200 000e D860     		str	r0, [r3, #12]	@ float
 201              	.LVL21:
 202              	.LBE140:
 203              	.LBE139:
 204              	.LBE134:
 205              	.LBB141:
 206              	.LBB142:
  26:Core/Inc\utils/pid_algorithms.h ****                 min_ = min_out;
 207              		.loc 1 26 0
 208 0010 1B49     		ldr	r1, .L17+12
 209 0012 1961     		str	r1, [r3, #16]	@ float
  27:Core/Inc\utils/pid_algorithms.h ****         }
 210              		.loc 1 27 0
 211 0014 1B4A     		ldr	r2, .L17+16
 212 0016 5A61     		str	r2, [r3, #20]	@ float
 213              	.LVL22:
 214              	.LBE142:
 215              	.LBE141:
 216              	.LBB143:
 217              	.LBB144:
 218              	.LBB145:
  13:Core/Inc\utils/pid_algorithms.h ****         void set_I(float i) { i_ = i; }
 219              		.loc 1 13 0
 220 0018 1B4D     		ldr	r5, .L17+20
 221 001a 9D62     		str	r5, [r3, #40]	@ float
 222              	.LVL23:
 223              	.LBE145:
 224              	.LBE144:
 225              	.LBB146:
 226              	.LBB147:
ARM GAS  C:\Users\073be\AppData\Local\Temp\ccwGO8Fo.s 			page 9


  14:Core/Inc\utils/pid_algorithms.h ****         void set_D(float d) { d_ = d; }
 227              		.loc 1 14 0
 228 001c 1B4D     		ldr	r5, .L17+24
 229 001e DD62     		str	r5, [r3, #44]	@ float
 230              	.LVL24:
 231              	.LBE147:
 232              	.LBE146:
 233              	.LBB148:
 234              	.LBB149:
  15:Core/Inc\utils/pid_algorithms.h ****         void set_PID(float p, float i, float d) {
 235              		.loc 1 15 0
 236 0020 1863     		str	r0, [r3, #48]	@ float
 237              	.LVL25:
 238              	.LBE149:
 239              	.LBE148:
 240              	.LBE143:
 241              	.LBB150:
 242              	.LBB151:
  26:Core/Inc\utils/pid_algorithms.h ****                 min_ = min_out;
 243              		.loc 1 26 0
 244 0022 5963     		str	r1, [r3, #52]	@ float
  27:Core/Inc\utils/pid_algorithms.h ****         }
 245              		.loc 1 27 0
 246 0024 9A63     		str	r2, [r3, #56]	@ float
 247              	.LVL26:
 248              	.LBE151:
 249              	.LBE150:
 250              	.LBB152:
 251              	.LBB153:
 252              	.LBB154:
  13:Core/Inc\utils/pid_algorithms.h ****         void set_I(float i) { i_ = i; }
 253              		.loc 1 13 0
 254 0026 1A4D     		ldr	r5, .L17+28
 255 0028 DD64     		str	r5, [r3, #76]	@ float
 256              	.LVL27:
 257              	.LBE154:
 258              	.LBE153:
 259              	.LBB155:
 260              	.LBB156:
  14:Core/Inc\utils/pid_algorithms.h ****         void set_D(float d) { d_ = d; }
 261              		.loc 1 14 0
 262 002a 1C65     		str	r4, [r3, #80]	@ float
 263              	.LVL28:
 264              	.LBE156:
 265              	.LBE155:
 266              	.LBB157:
 267              	.LBB158:
  15:Core/Inc\utils/pid_algorithms.h ****         void set_PID(float p, float i, float d) {
 268              		.loc 1 15 0
 269 002c 5865     		str	r0, [r3, #84]	@ float
 270              	.LVL29:
 271              	.LBE158:
 272              	.LBE157:
 273              	.LBE152:
 274              	.LBB159:
 275              	.LBB160:
  26:Core/Inc\utils/pid_algorithms.h ****                 min_ = min_out;
ARM GAS  C:\Users\073be\AppData\Local\Temp\ccwGO8Fo.s 			page 10


 276              		.loc 1 26 0
 277 002e 9965     		str	r1, [r3, #88]	@ float
  27:Core/Inc\utils/pid_algorithms.h ****         }
 278              		.loc 1 27 0
 279 0030 DA65     		str	r2, [r3, #92]	@ float
 280              	.LVL30:
 281              	.LBE160:
 282              	.LBE159:
 283              	.LBB161:
 284              	.LBB162:
 285              	.LBB163:
  13:Core/Inc\utils/pid_algorithms.h ****         void set_I(float i) { i_ = i; }
 286              		.loc 1 13 0
 287 0032 184C     		ldr	r4, .L17+32
 288 0034 1C67     		str	r4, [r3, #112]	@ float
 289              	.LVL31:
 290              	.LBE163:
 291              	.LBE162:
 292              	.LBB164:
 293              	.LBB165:
  14:Core/Inc\utils/pid_algorithms.h ****         void set_D(float d) { d_ = d; }
 294              		.loc 1 14 0
 295 0036 184C     		ldr	r4, .L17+36
 296 0038 5C67     		str	r4, [r3, #116]	@ float
 297              	.LVL32:
 298              	.LBE165:
 299              	.LBE164:
 300              	.LBB166:
 301              	.LBB167:
  15:Core/Inc\utils/pid_algorithms.h ****         void set_PID(float p, float i, float d) {
 302              		.loc 1 15 0
 303 003a 9867     		str	r0, [r3, #120]	@ float
 304              	.LVL33:
 305              	.LBE167:
 306              	.LBE166:
 307              	.LBE161:
 308              	.LBB168:
 309              	.LBB169:
  26:Core/Inc\utils/pid_algorithms.h ****                 min_ = min_out;
 310              		.loc 1 26 0
 311 003c D967     		str	r1, [r3, #124]	@ float
  27:Core/Inc\utils/pid_algorithms.h ****         }
 312              		.loc 1 27 0
 313 003e C3F88020 		str	r2, [r3, #128]	@ float
 314              	.LVL34:
 315              	.LBE169:
 316              	.LBE168:
 317              	.LBB170:
 126:Core/Src/robot/robo_init.cpp ****         gDisc_PID[0].set_PID(0.6336, gI_Factor*10.05, 0);
 127:Core/Src/robot/robo_init.cpp ****         gDisc_PID[0].set_Limits(24, -24);
 128:Core/Src/robot/robo_init.cpp ****         gDisc_PID[1].set_PID(0.5262, gI_Factor*9.528, 0);
 129:Core/Src/robot/robo_init.cpp ****         gDisc_PID[1].set_Limits(24, -24);
 130:Core/Src/robot/robo_init.cpp ****         gDisc_PID[2].set_PID(0.7336, gI_Factor*10.05, 0);
 131:Core/Src/robot/robo_init.cpp ****         gDisc_PID[2].set_Limits(24, -24);
 132:Core/Src/robot/robo_init.cpp ****         gDisc_PID[3].set_PID(0.49, gI_Factor*7.615, 0);
 133:Core/Src/robot/robo_init.cpp ****         gDisc_PID[3].set_Limits(24, -24);
 134:Core/Src/robot/robo_init.cpp **** 
ARM GAS  C:\Users\073be\AppData\Local\Temp\ccwGO8Fo.s 			page 11


 135:Core/Src/robot/robo_init.cpp ****         for (uint8_t i = 0; i < 4; ++i) {
 318              		.loc 2 135 0
 319 0042 0023     		movs	r3, #0
 320              	.LVL35:
 321              	.L15:
 322              		.loc 2 135 0 is_stmt 0 discriminator 3
 323 0044 032B     		cmp	r3, #3
 324 0046 12D8     		bhi	.L13
 136:Core/Src/robot/robo_init.cpp ****                 gPID[i].set_Algorithm(&gDisc_PID[i]);
 325              		.loc 2 136 0 is_stmt 1 discriminator 2
 326 0048 03EBC301 		add	r1, r3, r3, lsl #3
 327 004c 8A00     		lsls	r2, r1, #2
 328 004e 0949     		ldr	r1, .L17
 329 0050 1144     		add	r1, r1, r2
 330              	.LVL36:
 331              	.LBB171:
 332              	.LBB172:
 333              		.file 3 "Core/Inc\\utils/pid.h"
   1:Core/Inc\utils/pid.h **** #ifndef _PID_H_
   2:Core/Inc\utils/pid.h **** #define _PID_H_
   3:Core/Inc\utils/pid.h **** 
   4:Core/Inc\utils/pid.h **** #include "pid_algorithms.h"
   5:Core/Inc\utils/pid.h **** 
   6:Core/Inc\utils/pid.h **** class PID
   7:Core/Inc\utils/pid.h **** {
   8:Core/Inc\utils/pid.h **** public:
   9:Core/Inc\utils/pid.h ****         PID() { }
  10:Core/Inc\utils/pid.h ****         PID(PID_Algorithm *algo) { set_Algorithm(algo); }
  11:Core/Inc\utils/pid.h ****         PID(PID &&) = default;
  12:Core/Inc\utils/pid.h ****         PID(const PID &) = default;
  13:Core/Inc\utils/pid.h ****         PID &operator=(PID &&) = default;
  14:Core/Inc\utils/pid.h ****         PID &operator=(const PID &) = default;
  15:Core/Inc\utils/pid.h ****         ~PID() { }
  16:Core/Inc\utils/pid.h **** 
  17:Core/Inc\utils/pid.h ****         void set_Algorithm(PID_Algorithm *algo) { algo_ = algo; }
 334              		.loc 3 17 0 discriminator 2
 335 0052 124A     		ldr	r2, .L17+40
 336 0054 42F82310 		str	r1, [r2, r3, lsl #2]
 337              	.LVL37:
 338              	.LBE172:
 339              	.LBE171:
 137:Core/Src/robot/robo_init.cpp ****                 gWheels[i].set_PIDController(&gPID[i]);
 340              		.loc 2 137 0 discriminator 2
 341 0058 02EB8302 		add	r2, r2, r3, lsl #2
 342              	.LVL38:
 343              	.LBB173:
 344              	.LBB174:
 345              		.file 4 "Core/Inc\\devs/wheel.h"
   1:Core/Inc\devs/wheel.h **** /*
   2:Core/Inc\devs/wheel.h ****  * wheel.h
   3:Core/Inc\devs/wheel.h ****  *
   4:Core/Inc\devs/wheel.h ****  * Created : 10/1/2018
   5:Core/Inc\devs/wheel.h ****  */
   6:Core/Inc\devs/wheel.h **** 
   7:Core/Inc\devs/wheel.h **** #ifndef _WHEEL_H_
   8:Core/Inc\devs/wheel.h **** #define _WHEEL_H_
   9:Core/Inc\devs/wheel.h **** 
ARM GAS  C:\Users\073be\AppData\Local\Temp\ccwGO8Fo.s 			page 12


  10:Core/Inc\devs/wheel.h **** #include "stm32f4xx_hal.h"
  11:Core/Inc\devs/wheel.h **** #include "tim.h"
  12:Core/Inc\devs/wheel.h **** 
  13:Core/Inc\devs/wheel.h **** #include "defines.h"
  14:Core/Inc\devs/wheel.h **** 
  15:Core/Inc\devs/wheel.h **** #include "pid_algorithms.h"
  16:Core/Inc\devs/wheel.h **** #include "pid.h"
  17:Core/Inc\devs/wheel.h **** 
  18:Core/Inc\devs/wheel.h **** enum Direction
  19:Core/Inc\devs/wheel.h **** {
  20:Core/Inc\devs/wheel.h ****         AHEAD,
  21:Core/Inc\devs/wheel.h ****         BACK,
  22:Core/Inc\devs/wheel.h ****         HALT
  23:Core/Inc\devs/wheel.h **** };
  24:Core/Inc\devs/wheel.h **** 
  25:Core/Inc\devs/wheel.h **** struct Wheel_Config
  26:Core/Inc\devs/wheel.h **** {
  27:Core/Inc\devs/wheel.h ****         uint8_t id;
  28:Core/Inc\devs/wheel.h ****         float radius;
  29:Core/Inc\devs/wheel.h **** 
  30:Core/Inc\devs/wheel.h ****         GPIO_TypeDef *in1_port;
  31:Core/Inc\devs/wheel.h ****         uint16_t in1_pin;
  32:Core/Inc\devs/wheel.h ****         GPIO_TypeDef *in2_port;
  33:Core/Inc\devs/wheel.h ****         uint16_t in2_pin;
  34:Core/Inc\devs/wheel.h **** 
  35:Core/Inc\devs/wheel.h ****         TIM_HandleTypeDef *htim;        // PWM Generating Timer
  36:Core/Inc\devs/wheel.h ****         uint32_t channel;               // PWM Channel
  37:Core/Inc\devs/wheel.h **** 
  38:Core/Inc\devs/wheel.h ****         TIM_HandleTypeDef *henc;
  39:Core/Inc\devs/wheel.h ****         
  40:Core/Inc\devs/wheel.h ****         float tolerance;                // Tolerance level for zero
  41:Core/Inc\devs/wheel.h ****         float max_omega;
  42:Core/Inc\devs/wheel.h ****         uint32_t enc_ppr;
  43:Core/Inc\devs/wheel.h **** 
  44:Core/Inc\devs/wheel.h ****         PID *pid_controller;            // Pointer to the wheel's PID controller
  45:Core/Inc\devs/wheel.h **** };
  46:Core/Inc\devs/wheel.h **** 
  47:Core/Inc\devs/wheel.h **** class Wheel
  48:Core/Inc\devs/wheel.h **** {
  49:Core/Inc\devs/wheel.h **** public:
  50:Core/Inc\devs/wheel.h ****         Wheel() { wheel_ = 0; }
  51:Core/Inc\devs/wheel.h ****         Wheel(Wheel_Config *wheel) { wheel_ = wheel; }
  52:Core/Inc\devs/wheel.h ****         Wheel(Wheel &&) = default;
  53:Core/Inc\devs/wheel.h ****         Wheel(const Wheel &) = default;
  54:Core/Inc\devs/wheel.h ****         Wheel &operator=(Wheel &&) = default;
  55:Core/Inc\devs/wheel.h ****         Wheel &operator=(const Wheel &) = default;
  56:Core/Inc\devs/wheel.h ****         ~Wheel() { }
  57:Core/Inc\devs/wheel.h ****         
  58:Core/Inc\devs/wheel.h ****         void set_Config(Wheel_Config *wheel) { wheel_ = wheel; }
  59:Core/Inc\devs/wheel.h ****         void set_Direction(enum Direction d) { dir_ = d; }
  60:Core/Inc\devs/wheel.h ****         void set_Omega(float omega);
  61:Core/Inc\devs/wheel.h ****         void update() const;
  62:Core/Inc\devs/wheel.h **** 
  63:Core/Inc\devs/wheel.h ****         float get_Omega(uint32_t dt_millis);
  64:Core/Inc\devs/wheel.h ****         float get_MaxOmega() { return wheel_->max_omega; }
  65:Core/Inc\devs/wheel.h **** 
  66:Core/Inc\devs/wheel.h ****         void set_PIDController(PID *pid) { wheel_->pid_controller = pid; }
ARM GAS  C:\Users\073be\AppData\Local\Temp\ccwGO8Fo.s 			page 13


 346              		.loc 4 66 0 discriminator 2
 347 005c 03EB4300 		add	r0, r3, r3, lsl #1
 348 0060 8100     		lsls	r1, r0, #2
 349 0062 0F48     		ldr	r0, .L17+44
 350 0064 4158     		ldr	r1, [r0, r1]
 351 0066 0A63     		str	r2, [r1, #48]
 352              	.LVL39:
 353              	.LBE174:
 354              	.LBE173:
 135:Core/Src/robot/robo_init.cpp ****                 gPID[i].set_Algorithm(&gDisc_PID[i]);
 355              		.loc 2 135 0 discriminator 2
 356 0068 0133     		adds	r3, r3, #1
 357              	.LVL40:
 358 006a DBB2     		uxtb	r3, r3
 359              	.LVL41:
 360 006c EAE7     		b	.L15
 361              	.L13:
 362              	.LBE170:
 138:Core/Src/robot/robo_init.cpp ****         }
 139:Core/Src/robot/robo_init.cpp **** }
 363              		.loc 2 139 0
 364 006e 30BC     		pop	{r4, r5}
 365              	.LCFI1:
 366              		.cfi_restore 5
 367              		.cfi_restore 4
 368              		.cfi_def_cfa_offset 0
 369 0070 7047     		bx	lr
 370              	.L18:
 371 0072 00BF     		.align	2
 372              	.L17:
 373 0074 00000000 		.word	.LANCHOR0
 374 0078 9C33223F 		.word	1059206044
 375 007c CDCCA041 		.word	1101057229
 376 0080 0000C041 		.word	1103101952
 377 0084 0000C0C1 		.word	-1044381696
 378 0088 0BB5063F 		.word	1057404171
 379 008c B0729841 		.word	1100509872
 380 0090 36CD3B3F 		.word	1060883766
 381 0094 48E1FA3E 		.word	1056629064
 382 0098 14AE7341 		.word	1098100244
 383 009c 00000000 		.word	.LANCHOR1
 384 00a0 00000000 		.word	.LANCHOR2
 385              		.cfi_endproc
 386              	.LFE183:
 388              		.section	.text._ZL10wheel_initv,"ax",%progbits
 389              		.align	1
 390              		.syntax unified
 391              		.thumb
 392              		.thumb_func
 393              		.fpu fpv4-sp-d16
 395              	_ZL10wheel_initv:
 396              	.LFB182:
  67:Core/Src/robot/robo_init.cpp ****         int i;
 397              		.loc 2 67 0
 398              		.cfi_startproc
 399              		@ args = 0, pretend = 0, frame = 0
 400              		@ frame_needed = 0, uses_anonymous_args = 0
ARM GAS  C:\Users\073be\AppData\Local\Temp\ccwGO8Fo.s 			page 14


 401 0000 10B5     		push	{r4, lr}
 402              	.LCFI2:
 403              		.cfi_def_cfa_offset 8
 404              		.cfi_offset 4, -8
 405              		.cfi_offset 14, -4
 406              	.LVL42:
  69:Core/Src/robot/robo_init.cpp ****         {
 407              		.loc 2 69 0
 408 0002 0023     		movs	r3, #0
 409              	.LVL43:
 410              	.L21:
  69:Core/Src/robot/robo_init.cpp ****         {
 411              		.loc 2 69 0 is_stmt 0 discriminator 3
 412 0004 032B     		cmp	r3, #3
 413 0006 0FDC     		bgt	.L20
  71:Core/Src/robot/robo_init.cpp ****                 gWheel_Configurations[i].radius = 0.067;
 414              		.loc 2 71 0 is_stmt 1 discriminator 2
 415 0008 2D48     		ldr	r0, .L25
 416 000a 3421     		movs	r1, #52
 417 000c 01FB03F1 		mul	r1, r1, r3
 418 0010 4218     		adds	r2, r0, r1
 419 0012 4354     		strb	r3, [r0, r1]
  72:Core/Src/robot/robo_init.cpp ****                 // All motors are connected to same timer : TIM8
 420              		.loc 2 72 0 discriminator 2
 421 0014 2B49     		ldr	r1, .L25+4
 422 0016 5160     		str	r1, [r2, #4]	@ float
  74:Core/Src/robot/robo_init.cpp ****                 //! Need to re-calculate this value
 423              		.loc 2 74 0 discriminator 2
 424 0018 2B49     		ldr	r1, .L25+8
 425 001a 9161     		str	r1, [r2, #24]
  76:Core/Src/robot/robo_init.cpp ****                 //! Need to make sure the following value is correct
 426              		.loc 2 76 0 discriminator 2
 427 001c 2B49     		ldr	r1, .L25+12
 428 001e 9162     		str	r1, [r2, #40]	@ float
  78:Core/Src/robot/robo_init.cpp ****         }
 429              		.loc 2 78 0 discriminator 2
 430 0020 F921     		movs	r1, #249
 431 0022 D162     		str	r1, [r2, #44]
  69:Core/Src/robot/robo_init.cpp ****         {
 432              		.loc 2 69 0 discriminator 2
 433 0024 0133     		adds	r3, r3, #1
 434              	.LVL44:
 435 0026 EDE7     		b	.L21
 436              	.L20:
  80:Core/Src/robot/robo_init.cpp ****         gWheel_Configurations[0].in1_pin = GPIO_PIN_3; 
 437              		.loc 2 80 0
 438 0028 254A     		ldr	r2, .L25
 439 002a 2949     		ldr	r1, .L25+16
 440 002c 9160     		str	r1, [r2, #8]
  81:Core/Src/robot/robo_init.cpp ****         gWheel_Configurations[0].in2_port = GPIOD;
 441              		.loc 2 81 0
 442 002e 0820     		movs	r0, #8
 443 0030 9081     		strh	r0, [r2, #12]	@ movhi
  82:Core/Src/robot/robo_init.cpp ****         gWheel_Configurations[0].in2_pin = GPIO_PIN_1;
 444              		.loc 2 82 0
 445 0032 1161     		str	r1, [r2, #16]
  83:Core/Src/robot/robo_init.cpp ****         gWheel_Configurations[0].channel = TIM_CHANNEL_1;
ARM GAS  C:\Users\073be\AppData\Local\Temp\ccwGO8Fo.s 			page 15


 446              		.loc 2 83 0
 447 0034 0223     		movs	r3, #2
 448              	.LVL45:
 449 0036 9382     		strh	r3, [r2, #20]	@ movhi
  84:Core/Src/robot/robo_init.cpp ****         gWheel_Configurations[0].henc = &htim2;
 450              		.loc 2 84 0
 451 0038 0023     		movs	r3, #0
 452 003a D361     		str	r3, [r2, #28]
  85:Core/Src/robot/robo_init.cpp **** 
 453              		.loc 2 85 0
 454 003c 254C     		ldr	r4, .L25+20
 455 003e 1462     		str	r4, [r2, #32]
  87:Core/Src/robot/robo_init.cpp ****         gWheel_Configurations[1].in1_pin = GPIO_PIN_14;
 456              		.loc 2 87 0
 457 0040 D163     		str	r1, [r2, #60]
  88:Core/Src/robot/robo_init.cpp ****         gWheel_Configurations[1].in2_port = GPIOD;
 458              		.loc 2 88 0
 459 0042 4FF48044 		mov	r4, #16384
 460 0046 A2F84040 		strh	r4, [r2, #64]	@ movhi
  89:Core/Src/robot/robo_init.cpp ****         gWheel_Configurations[1].in2_pin = GPIO_PIN_5;
 461              		.loc 2 89 0
 462 004a 5164     		str	r1, [r2, #68]
  90:Core/Src/robot/robo_init.cpp ****         gWheel_Configurations[1].channel = TIM_CHANNEL_2;
 463              		.loc 2 90 0
 464 004c 2024     		movs	r4, #32
 465 004e A2F84840 		strh	r4, [r2, #72]	@ movhi
  91:Core/Src/robot/robo_init.cpp ****         gWheel_Configurations[1].henc = &htim3;
 466              		.loc 2 91 0
 467 0052 0424     		movs	r4, #4
 468 0054 1465     		str	r4, [r2, #80]
  92:Core/Src/robot/robo_init.cpp ****         
 469              		.loc 2 92 0
 470 0056 204C     		ldr	r4, .L25+24
 471 0058 5465     		str	r4, [r2, #84]
  94:Core/Src/robot/robo_init.cpp ****         gWheel_Configurations[2].in1_pin = GPIO_PIN_7;
 472              		.loc 2 94 0
 473 005a 1167     		str	r1, [r2, #112]
  95:Core/Src/robot/robo_init.cpp ****         gWheel_Configurations[2].in2_port = GPIOD;
 474              		.loc 2 95 0
 475 005c 8024     		movs	r4, #128
 476 005e A2F87440 		strh	r4, [r2, #116]	@ movhi
  96:Core/Src/robot/robo_init.cpp ****         gWheel_Configurations[2].in2_pin = GPIO_PIN_15;
 477              		.loc 2 96 0
 478 0062 9167     		str	r1, [r2, #120]
  97:Core/Src/robot/robo_init.cpp ****         gWheel_Configurations[2].channel = TIM_CHANNEL_3;
 479              		.loc 2 97 0
 480 0064 4FF40041 		mov	r1, #32768
 481 0068 A2F87C10 		strh	r1, [r2, #124]	@ movhi
  98:Core/Src/robot/robo_init.cpp ****         gWheel_Configurations[2].henc = &htim1;
 482              		.loc 2 98 0
 483 006c C2F88400 		str	r0, [r2, #132]
  99:Core/Src/robot/robo_init.cpp **** 
 484              		.loc 2 99 0
 485 0070 1A49     		ldr	r1, .L25+28
 486 0072 C2F88810 		str	r1, [r2, #136]
 101:Core/Src/robot/robo_init.cpp ****         gWheel_Configurations[3].in1_pin = GPIO_PIN_12;
 487              		.loc 2 101 0
ARM GAS  C:\Users\073be\AppData\Local\Temp\ccwGO8Fo.s 			page 16


 488 0076 1A49     		ldr	r1, .L25+32
 489 0078 C2F8A410 		str	r1, [r2, #164]
 102:Core/Src/robot/robo_init.cpp ****         gWheel_Configurations[3].in2_port = GPIOC;
 490              		.loc 2 102 0
 491 007c 4FF48050 		mov	r0, #4096
 492 0080 A2F8A800 		strh	r0, [r2, #168]	@ movhi
 103:Core/Src/robot/robo_init.cpp ****         gWheel_Configurations[3].in2_pin = GPIO_PIN_10;
 493              		.loc 2 103 0
 494 0084 C2F8AC10 		str	r1, [r2, #172]
 104:Core/Src/robot/robo_init.cpp ****         gWheel_Configurations[3].channel = TIM_CHANNEL_4;
 495              		.loc 2 104 0
 496 0088 4FF48061 		mov	r1, #1024
 497 008c A2F8B010 		strh	r1, [r2, #176]	@ movhi
 105:Core/Src/robot/robo_init.cpp ****         gWheel_Configurations[3].henc = &htim4;
 498              		.loc 2 105 0
 499 0090 0C21     		movs	r1, #12
 500 0092 C2F8B810 		str	r1, [r2, #184]
 106:Core/Src/robot/robo_init.cpp **** 
 501              		.loc 2 106 0
 502 0096 1349     		ldr	r1, .L25+36
 503 0098 C2F8BC10 		str	r1, [r2, #188]
 504              	.LVL46:
 505              	.L23:
 506              	.LBB175:
 108:Core/Src/robot/robo_init.cpp ****                 gWheels[i].set_Config(&gWheel_Configurations[i]);
 507              		.loc 2 108 0 discriminator 3
 508 009c 032B     		cmp	r3, #3
 509 009e 0BD8     		bhi	.L22
 109:Core/Src/robot/robo_init.cpp ****         }
 510              		.loc 2 109 0 discriminator 2
 511 00a0 0749     		ldr	r1, .L25
 512 00a2 3422     		movs	r2, #52
 513 00a4 02FB0312 		mla	r2, r2, r3, r1
 514              	.LVL47:
 515              	.LBB176:
 516              	.LBB177:
  58:Core/Inc\devs/wheel.h ****         void set_Direction(enum Direction d) { dir_ = d; }
 517              		.loc 4 58 0 discriminator 2
 518 00a8 03EB4300 		add	r0, r3, r3, lsl #1
 519 00ac 8100     		lsls	r1, r0, #2
 520 00ae 0E48     		ldr	r0, .L25+40
 521 00b0 4250     		str	r2, [r0, r1]
 522              	.LVL48:
 523              	.LBE177:
 524              	.LBE176:
 108:Core/Src/robot/robo_init.cpp ****                 gWheels[i].set_Config(&gWheel_Configurations[i]);
 525              		.loc 2 108 0 discriminator 2
 526 00b2 0133     		adds	r3, r3, #1
 527              	.LVL49:
 528 00b4 DBB2     		uxtb	r3, r3
 529              	.LVL50:
 530 00b6 F1E7     		b	.L23
 531              	.L22:
 532              	.LBE175:
 112:Core/Src/robot/robo_init.cpp **** }
 533              		.loc 2 112 0
 534 00b8 FFF7FEFF 		bl	_ZL8pid_Initv
ARM GAS  C:\Users\073be\AppData\Local\Temp\ccwGO8Fo.s 			page 17


 535              	.LVL51:
 113:Core/Src/robot/robo_init.cpp **** 
 536              		.loc 2 113 0
 537 00bc 10BD     		pop	{r4, pc}
 538              	.L26:
 539 00be 00BF     		.align	2
 540              	.L25:
 541 00c0 00000000 		.word	.LANCHOR3
 542 00c4 4C37893D 		.word	1032402764
 543 00c8 00000000 		.word	htim8
 544 00cc 00008C42 		.word	1116471296
 545 00d0 000C0240 		.word	1073875968
 546 00d4 00000000 		.word	htim2
 547 00d8 00000000 		.word	htim3
 548 00dc 00000000 		.word	htim1
 549 00e0 00080240 		.word	1073874944
 550 00e4 00000000 		.word	htim4
 551 00e8 00000000 		.word	.LANCHOR2
 552              		.cfi_endproc
 553              	.LFE182:
 555              		.section	.text.__tcf_0,"ax",%progbits
 556              		.align	1
 557              		.syntax unified
 558              		.thumb
 559              		.thumb_func
 560              		.fpu fpv4-sp-d16
 562              	__tcf_0:
 563              	.LFB185:
  12:Core/Src/robot/robo_init.cpp **** 
 564              		.loc 2 12 0
 565              		.cfi_startproc
 566              		@ args = 0, pretend = 0, frame = 0
 567              		@ frame_needed = 0, uses_anonymous_args = 0
 568              		@ link register save eliminated.
  12:Core/Src/robot/robo_init.cpp **** 
 569              		.loc 2 12 0
 570 0000 034B     		ldr	r3, .L30
 571              	.L29:
  12:Core/Src/robot/robo_init.cpp **** 
 572              		.loc 2 12 0 is_stmt 0 discriminator 5
 573 0002 044A     		ldr	r2, .L30+4
 574 0004 9342     		cmp	r3, r2
 575 0006 01D0     		beq	.L27
  12:Core/Src/robot/robo_init.cpp **** 
 576              		.loc 2 12 0 discriminator 4
 577 0008 0C3B     		subs	r3, r3, #12
 578              	.LVL52:
 579 000a FAE7     		b	.L29
 580              	.LVL53:
 581              	.L27:
  12:Core/Src/robot/robo_init.cpp **** 
 582              		.loc 2 12 0
 583 000c 7047     		bx	lr
 584              	.L31:
 585 000e 00BF     		.align	2
 586              	.L30:
 587 0010 30000000 		.word	.LANCHOR2+48
ARM GAS  C:\Users\073be\AppData\Local\Temp\ccwGO8Fo.s 			page 18


 588 0014 00000000 		.word	.LANCHOR2
 589              		.cfi_endproc
 590              	.LFE185:
 592              		.section	.text.__tcf_1,"ax",%progbits
 593              		.align	1
 594              		.syntax unified
 595              		.thumb
 596              		.thumb_func
 597              		.fpu fpv4-sp-d16
 599              	__tcf_1:
 600              	.LFB186:
  14:Core/Src/robot/robo_init.cpp **** static PID gPID[4];
 601              		.loc 2 14 0 is_stmt 1
 602              		.cfi_startproc
 603              		@ args = 0, pretend = 0, frame = 0
 604              		@ frame_needed = 0, uses_anonymous_args = 0
 605 0000 10B5     		push	{r4, lr}
 606              	.LCFI3:
 607              		.cfi_def_cfa_offset 8
 608              		.cfi_offset 4, -8
 609              		.cfi_offset 14, -4
  14:Core/Src/robot/robo_init.cpp **** static PID gPID[4];
 610              		.loc 2 14 0
 611 0002 054C     		ldr	r4, .L36
 612              	.L34:
  14:Core/Src/robot/robo_init.cpp **** static PID gPID[4];
 613              		.loc 2 14 0 is_stmt 0 discriminator 5
 614 0004 054B     		ldr	r3, .L36+4
 615 0006 9C42     		cmp	r4, r3
 616 0008 05D0     		beq	.L32
  14:Core/Src/robot/robo_init.cpp **** static PID gPID[4];
 617              		.loc 2 14 0 discriminator 4
 618 000a 54F8243D 		ldr	r3, [r4, #-36]!
 619 000e 5B68     		ldr	r3, [r3, #4]
 620 0010 2046     		mov	r0, r4
 621 0012 9847     		blx	r3
 622              	.LVL54:
 623 0014 F6E7     		b	.L34
 624              	.L32:
  14:Core/Src/robot/robo_init.cpp **** static PID gPID[4];
 625              		.loc 2 14 0
 626 0016 10BD     		pop	{r4, pc}
 627              	.L37:
 628              		.align	2
 629              	.L36:
 630 0018 90000000 		.word	.LANCHOR0+144
 631 001c 00000000 		.word	.LANCHOR0
 632              		.cfi_endproc
 633              	.LFE186:
 635              		.section	.text.__tcf_2,"ax",%progbits
 636              		.align	1
 637              		.syntax unified
 638              		.thumb
 639              		.thumb_func
 640              		.fpu fpv4-sp-d16
 642              	__tcf_2:
 643              	.LFB187:
ARM GAS  C:\Users\073be\AppData\Local\Temp\ccwGO8Fo.s 			page 19


  15:Core/Src/robot/robo_init.cpp **** 
 644              		.loc 2 15 0 is_stmt 1
 645              		.cfi_startproc
 646              		@ args = 0, pretend = 0, frame = 0
 647              		@ frame_needed = 0, uses_anonymous_args = 0
 648              		@ link register save eliminated.
  15:Core/Src/robot/robo_init.cpp **** 
 649              		.loc 2 15 0
 650 0000 034B     		ldr	r3, .L41
 651              	.L40:
  15:Core/Src/robot/robo_init.cpp **** 
 652              		.loc 2 15 0 is_stmt 0 discriminator 5
 653 0002 044A     		ldr	r2, .L41+4
 654 0004 9342     		cmp	r3, r2
 655 0006 01D0     		beq	.L38
  15:Core/Src/robot/robo_init.cpp **** 
 656              		.loc 2 15 0 discriminator 4
 657 0008 043B     		subs	r3, r3, #4
 658              	.LVL55:
 659 000a FAE7     		b	.L40
 660              	.LVL56:
 661              	.L38:
  15:Core/Src/robot/robo_init.cpp **** 
 662              		.loc 2 15 0
 663 000c 7047     		bx	lr
 664              	.L42:
 665 000e 00BF     		.align	2
 666              	.L41:
 667 0010 10000000 		.word	.LANCHOR1+16
 668 0014 00000000 		.word	.LANCHOR1
 669              		.cfi_endproc
 670              	.LFE187:
 672              		.section	.text._Z41__static_initialization_and_destruction_0ii,"ax",%progbits
 673              		.align	1
 674              		.syntax unified
 675              		.thumb
 676              		.thumb_func
 677              		.fpu fpv4-sp-d16
 679              	_Z41__static_initialization_and_destruction_0ii:
 680              	.LFB184:
 681              		.loc 2 139 0 is_stmt 1
 682              		.cfi_startproc
 683              		@ args = 0, pretend = 0, frame = 0
 684              		@ frame_needed = 0, uses_anonymous_args = 0
 685              	.LVL57:
 686 0000 0128     		cmp	r0, #1
 687 0002 00D0     		beq	.L55
 688 0004 7047     		bx	lr
 689              	.L55:
 690              		.loc 2 139 0 is_stmt 0 discriminator 1
 691 0006 08B5     		push	{r3, lr}
 692              	.LCFI4:
 693              		.cfi_def_cfa_offset 8
 694              		.cfi_offset 3, -8
 695              		.cfi_offset 14, -4
 696              		.loc 2 139 0 is_stmt 1 discriminator 1
 697 0008 4FF6FF73 		movw	r3, #65535
ARM GAS  C:\Users\073be\AppData\Local\Temp\ccwGO8Fo.s 			page 20


 698 000c 9942     		cmp	r1, r3
 699 000e 00D0     		beq	.L56
 700              	.LVL58:
 701              	.L43:
 702              		.loc 2 139 0 is_stmt 0
 703 0010 08BD     		pop	{r3, pc}
 704              	.LVL59:
 705              	.L56:
  12:Core/Src/robot/robo_init.cpp **** 
 706              		.loc 2 12 0 is_stmt 1
 707 0012 0323     		movs	r3, #3
 708 0014 164A     		ldr	r2, .L57
 709              	.LVL60:
 710              	.L46:
  12:Core/Src/robot/robo_init.cpp **** 
 711              		.loc 2 12 0 is_stmt 0 discriminator 4
 712 0016 002B     		cmp	r3, #0
 713 0018 04DB     		blt	.L45
 714              	.LVL61:
 715              	.LBB178:
 716              	.LBB179:
  50:Core/Inc\devs/wheel.h ****         Wheel(Wheel_Config *wheel) { wheel_ = wheel; }
 717              		.loc 4 50 0 is_stmt 1
 718 001a 0021     		movs	r1, #0
 719 001c 42F80C1B 		str	r1, [r2], #12
 720              	.LVL62:
 721              	.LBE179:
 722              	.LBE178:
  12:Core/Src/robot/robo_init.cpp **** 
 723              		.loc 2 12 0
 724 0020 013B     		subs	r3, r3, #1
 725 0022 F8E7     		b	.L46
 726              	.L45:
  12:Core/Src/robot/robo_init.cpp **** 
 727              		.loc 2 12 0 is_stmt 0 discriminator 2
 728 0024 134A     		ldr	r2, .L57+4
 729 0026 1449     		ldr	r1, .L57+8
 730 0028 0020     		movs	r0, #0
 731              	.LVL63:
 732 002a FFF7FEFF 		bl	__aeabi_atexit
 733              	.LVL64:
  14:Core/Src/robot/robo_init.cpp **** static PID gPID[4];
 734              		.loc 2 14 0 is_stmt 1 discriminator 2
 735 002e 0321     		movs	r1, #3
 736 0030 124B     		ldr	r3, .L57+12
 737              	.L48:
  14:Core/Src/robot/robo_init.cpp **** static PID gPID[4];
 738              		.loc 2 14 0 is_stmt 0 discriminator 4
 739 0032 0029     		cmp	r1, #0
 740 0034 0BDB     		blt	.L47
 741              	.LVL65:
 742              	.LBB180:
 743              	.LBB181:
 744              	.LBB182:
 745              	.LBB183:
 746              	.LBB184:
 747              	.LBB185:
ARM GAS  C:\Users\073be\AppData\Local\Temp\ccwGO8Fo.s 			page 21


  13:Core/Inc\utils/pid_algorithms.h ****         void set_I(float i) { i_ = i; }
 748              		.loc 1 13 0 is_stmt 1
 749 0036 0022     		movs	r2, #0
 750 0038 5A60     		str	r2, [r3, #4]	@ float
 751              	.LVL66:
 752              	.LBE185:
 753              	.LBE184:
 754              	.LBB186:
 755              	.LBB187:
  14:Core/Inc\utils/pid_algorithms.h ****         void set_D(float d) { d_ = d; }
 756              		.loc 1 14 0
 757 003a 9A60     		str	r2, [r3, #8]	@ float
 758              	.LVL67:
 759              	.LBE187:
 760              	.LBE186:
 761              	.LBB188:
 762              	.LBB189:
  15:Core/Inc\utils/pid_algorithms.h ****         void set_PID(float p, float i, float d) {
 763              		.loc 1 15 0
 764 003c DA60     		str	r2, [r3, #12]	@ float
 765              	.LVL68:
 766              	.LBE189:
 767              	.LBE188:
 768              	.LBE183:
 769              	.LBE182:
  49:Core/Inc\utils/pid_algorithms.h ****                 l_output_ = 0;
 770              		.loc 1 49 0
 771 003e 1048     		ldr	r0, .L57+16
 772 0040 1860     		str	r0, [r3]
  50:Core/Inc\utils/pid_algorithms.h ****                 l_err_ = 0;
 773              		.loc 1 50 0
 774 0042 9A61     		str	r2, [r3, #24]	@ float
  51:Core/Inc\utils/pid_algorithms.h ****                 ll_err_ = 0;
 775              		.loc 1 51 0
 776 0044 DA61     		str	r2, [r3, #28]	@ float
  52:Core/Inc\utils/pid_algorithms.h ****         }
 777              		.loc 1 52 0
 778 0046 1A62     		str	r2, [r3, #32]	@ float
 779              	.LVL69:
 780              	.LBE181:
 781              	.LBE180:
  14:Core/Src/robot/robo_init.cpp **** static PID gPID[4];
 782              		.loc 2 14 0
 783 0048 2433     		adds	r3, r3, #36
 784 004a 0139     		subs	r1, r1, #1
 785 004c F1E7     		b	.L48
 786              	.L47:
  14:Core/Src/robot/robo_init.cpp **** static PID gPID[4];
 787              		.loc 2 14 0 is_stmt 0 discriminator 2
 788 004e 094A     		ldr	r2, .L57+4
 789 0050 0C49     		ldr	r1, .L57+20
 790 0052 0020     		movs	r0, #0
 791 0054 FFF7FEFF 		bl	__aeabi_atexit
 792              	.LVL70:
  15:Core/Src/robot/robo_init.cpp **** 
 793              		.loc 2 15 0 is_stmt 1 discriminator 2
 794 0058 0323     		movs	r3, #3
ARM GAS  C:\Users\073be\AppData\Local\Temp\ccwGO8Fo.s 			page 22


 795              	.L50:
  15:Core/Src/robot/robo_init.cpp **** 
 796              		.loc 2 15 0 is_stmt 0 discriminator 4
 797 005a 002B     		cmp	r3, #0
 798 005c 01DB     		blt	.L49
  15:Core/Src/robot/robo_init.cpp **** 
 799              		.loc 2 15 0
 800 005e 013B     		subs	r3, r3, #1
 801 0060 FBE7     		b	.L50
 802              	.L49:
  15:Core/Src/robot/robo_init.cpp **** 
 803              		.loc 2 15 0 discriminator 2
 804 0062 044A     		ldr	r2, .L57+4
 805 0064 0849     		ldr	r1, .L57+24
 806 0066 0020     		movs	r0, #0
 807 0068 FFF7FEFF 		bl	__aeabi_atexit
 808              	.LVL71:
 809              		.loc 2 139 0 is_stmt 1 discriminator 2
 810 006c D0E7     		b	.L43
 811              	.L58:
 812 006e 00BF     		.align	2
 813              	.L57:
 814 0070 00000000 		.word	.LANCHOR2
 815 0074 00000000 		.word	__dso_handle
 816 0078 00000000 		.word	__tcf_0
 817 007c 00000000 		.word	.LANCHOR0
 818 0080 08000000 		.word	_ZTV12Discrete_PID+8
 819 0084 00000000 		.word	__tcf_1
 820 0088 00000000 		.word	__tcf_2
 821              		.cfi_endproc
 822              	.LFE184:
 824              		.section	.text._ZN12Discrete_PIDD0Ev,"axG",%progbits,_ZN12Discrete_PIDD5Ev,comdat
 825              		.align	1
 826              		.weak	_ZN12Discrete_PIDD0Ev
 827              		.syntax unified
 828              		.thumb
 829              		.thumb_func
 830              		.fpu fpv4-sp-d16
 832              	_ZN12Discrete_PIDD0Ev:
 833              	.LFB153:
  58:Core/Inc\utils/pid_algorithms.h **** 
 834              		.loc 1 58 0
 835              		.cfi_startproc
 836              		@ args = 0, pretend = 0, frame = 0
 837              		@ frame_needed = 0, uses_anonymous_args = 0
 838              	.LVL72:
 839 0000 10B5     		push	{r4, lr}
 840              	.LCFI5:
 841              		.cfi_def_cfa_offset 8
 842              		.cfi_offset 4, -8
 843              		.cfi_offset 14, -4
 844 0002 0446     		mov	r4, r0
  58:Core/Inc\utils/pid_algorithms.h **** 
 845              		.loc 1 58 0
 846 0004 2421     		movs	r1, #36
 847 0006 FFF7FEFF 		bl	_ZdlPvj
 848              	.LVL73:
ARM GAS  C:\Users\073be\AppData\Local\Temp\ccwGO8Fo.s 			page 23


 849 000a 2046     		mov	r0, r4
 850 000c 10BD     		pop	{r4, pc}
 851              		.cfi_endproc
 852              	.LFE153:
 854              		.section	.text._Z9robo_Initv,"ax",%progbits
 855              		.align	1
 856              		.global	_Z9robo_Initv
 857              		.syntax unified
 858              		.thumb
 859              		.thumb_func
 860              		.fpu fpv4-sp-d16
 862              	_Z9robo_Initv:
 863              	.LFB181:
  34:Core/Src/robot/robo_init.cpp ****         wheel_init();
 864              		.loc 2 34 0
 865              		.cfi_startproc
 866              		@ args = 0, pretend = 0, frame = 0
 867              		@ frame_needed = 0, uses_anonymous_args = 0
 868 0000 10B5     		push	{r4, lr}
 869              	.LCFI6:
 870              		.cfi_def_cfa_offset 8
 871              		.cfi_offset 4, -8
 872              		.cfi_offset 14, -4
  35:Core/Src/robot/robo_init.cpp **** 
 873              		.loc 2 35 0
 874 0002 FFF7FEFF 		bl	_ZL10wheel_initv
 875              	.LVL74:
  37:Core/Src/robot/robo_init.cpp **** 
 876              		.loc 2 37 0
 877 0006 1448     		ldr	r0, .L63
 878 0008 FFF7FEFF 		bl	HAL_TIM_Base_Start
 879              	.LVL75:
  39:Core/Src/robot/robo_init.cpp ****         HAL_TIM_PWM_Start(gWheel_Configurations[1].htim, TIM_CHANNEL_2);
 880              		.loc 2 39 0
 881 000c 134C     		ldr	r4, .L63+4
 882 000e 0021     		movs	r1, #0
 883 0010 A069     		ldr	r0, [r4, #24]
 884 0012 FFF7FEFF 		bl	HAL_TIM_PWM_Start
 885              	.LVL76:
  40:Core/Src/robot/robo_init.cpp ****         HAL_TIM_PWM_Start(gWheel_Configurations[2].htim, TIM_CHANNEL_3);
 886              		.loc 2 40 0
 887 0016 0421     		movs	r1, #4
 888 0018 E06C     		ldr	r0, [r4, #76]
 889 001a FFF7FEFF 		bl	HAL_TIM_PWM_Start
 890              	.LVL77:
  41:Core/Src/robot/robo_init.cpp ****         HAL_TIM_PWM_Start(gWheel_Configurations[3].htim, TIM_CHANNEL_4);
 891              		.loc 2 41 0
 892 001e 0821     		movs	r1, #8
 893 0020 D4F88000 		ldr	r0, [r4, #128]
 894 0024 FFF7FEFF 		bl	HAL_TIM_PWM_Start
 895              	.LVL78:
  42:Core/Src/robot/robo_init.cpp **** 
 896              		.loc 2 42 0
 897 0028 0C21     		movs	r1, #12
 898 002a D4F8B400 		ldr	r0, [r4, #180]
 899 002e FFF7FEFF 		bl	HAL_TIM_PWM_Start
 900              	.LVL79:
ARM GAS  C:\Users\073be\AppData\Local\Temp\ccwGO8Fo.s 			page 24


  44:Core/Src/robot/robo_init.cpp ****         HAL_TIM_Encoder_Start(gWheel_Configurations[1].henc, TIM_CHANNEL_ALL);
 901              		.loc 2 44 0
 902 0032 1821     		movs	r1, #24
 903 0034 206A     		ldr	r0, [r4, #32]
 904 0036 FFF7FEFF 		bl	HAL_TIM_Encoder_Start
 905              	.LVL80:
  45:Core/Src/robot/robo_init.cpp ****         HAL_TIM_Encoder_Start(gWheel_Configurations[2].henc, TIM_CHANNEL_ALL);
 906              		.loc 2 45 0
 907 003a 1821     		movs	r1, #24
 908 003c 606D     		ldr	r0, [r4, #84]
 909 003e FFF7FEFF 		bl	HAL_TIM_Encoder_Start
 910              	.LVL81:
  46:Core/Src/robot/robo_init.cpp ****         HAL_TIM_Encoder_Start(gWheel_Configurations[3].henc, TIM_CHANNEL_ALL);
 911              		.loc 2 46 0
 912 0042 1821     		movs	r1, #24
 913 0044 D4F88800 		ldr	r0, [r4, #136]
 914 0048 FFF7FEFF 		bl	HAL_TIM_Encoder_Start
 915              	.LVL82:
  47:Core/Src/robot/robo_init.cpp **** }
 916              		.loc 2 47 0
 917 004c 1821     		movs	r1, #24
 918 004e D4F8BC00 		ldr	r0, [r4, #188]
 919 0052 FFF7FEFF 		bl	HAL_TIM_Encoder_Start
 920              	.LVL83:
  48:Core/Src/robot/robo_init.cpp **** 
 921              		.loc 2 48 0
 922 0056 10BD     		pop	{r4, pc}
 923              	.L64:
 924              		.align	2
 925              	.L63:
 926 0058 00000000 		.word	htim8
 927 005c 00000000 		.word	.LANCHOR3
 928              		.cfi_endproc
 929              	.LFE181:
 931              		.section	.text._GLOBAL__sub_I_gWheels,"ax",%progbits
 932              		.align	1
 933              		.syntax unified
 934              		.thumb
 935              		.thumb_func
 936              		.fpu fpv4-sp-d16
 938              	_GLOBAL__sub_I_gWheels:
 939              	.LFB188:
 940              		.loc 2 139 0
 941              		.cfi_startproc
 942              		@ args = 0, pretend = 0, frame = 0
 943              		@ frame_needed = 0, uses_anonymous_args = 0
 944 0000 08B5     		push	{r3, lr}
 945              	.LCFI7:
 946              		.cfi_def_cfa_offset 8
 947              		.cfi_offset 3, -8
 948              		.cfi_offset 14, -4
 949              		.loc 2 139 0
 950 0002 4FF6FF71 		movw	r1, #65535
 951 0006 0120     		movs	r0, #1
 952 0008 FFF7FEFF 		bl	_Z41__static_initialization_and_destruction_0ii
 953              	.LVL84:
 954 000c 08BD     		pop	{r3, pc}
ARM GAS  C:\Users\073be\AppData\Local\Temp\ccwGO8Fo.s 			page 25


 955              		.cfi_endproc
 956              	.LFE188:
 958              		.section	.init_array,"aw",%init_array
 959              		.align	2
 960 0000 00000000 		.word	_GLOBAL__sub_I_gWheels(target1)
 961              		.weak	_ZTS13PID_Algorithm
 962              		.section	.rodata._ZTS13PID_Algorithm,"aG",%progbits,_ZTS13PID_Algorithm,comdat
 963              		.align	2
 966              	_ZTS13PID_Algorithm:
 967 0000 31335049 		.ascii	"13PID_Algorithm\000"
 967      445F416C 
 967      676F7269 
 967      74686D00 
 968              		.weak	_ZTI13PID_Algorithm
 969              		.section	.rodata._ZTI13PID_Algorithm,"aG",%progbits,_ZTI13PID_Algorithm,comdat
 970              		.align	2
 973              	_ZTI13PID_Algorithm:
 974 0000 08000000 		.word	_ZTVN10__cxxabiv117__class_type_infoE+8
 975 0004 00000000 		.word	_ZTS13PID_Algorithm
 976              		.weak	_ZTS12Discrete_PID
 977              		.section	.rodata._ZTS12Discrete_PID,"aG",%progbits,_ZTS12Discrete_PID,comdat
 978              		.align	2
 981              	_ZTS12Discrete_PID:
 982 0000 31324469 		.ascii	"12Discrete_PID\000"
 982      73637265 
 982      74655F50 
 982      494400
 983              		.weak	_ZTI12Discrete_PID
 984              		.section	.rodata._ZTI12Discrete_PID,"aG",%progbits,_ZTI12Discrete_PID,comdat
 985              		.align	2
 988              	_ZTI12Discrete_PID:
 989 0000 08000000 		.word	_ZTVN10__cxxabiv120__si_class_type_infoE+8
 990 0004 00000000 		.word	_ZTS12Discrete_PID
 991 0008 00000000 		.word	_ZTI13PID_Algorithm
 992              		.weak	_ZTV12Discrete_PID
 993              		.section	.rodata._ZTV12Discrete_PID,"aG",%progbits,_ZTV12Discrete_PID,comdat
 994              		.align	2
 997              	_ZTV12Discrete_PID:
 998 0000 00000000 		.word	0
 999 0004 00000000 		.word	_ZTI12Discrete_PID
 1000 0008 00000000 		.word	_ZN12Discrete_PID7computeEfm
 1001 000c 00000000 		.word	_ZN12Discrete_PIDD1Ev
 1002 0010 00000000 		.word	_ZN12Discrete_PIDD0Ev
 1003              		.global	gWheels
 1004              		.section	.bss._ZL21gWheel_Configurations,"aw",%nobits
 1005              		.align	2
 1006              		.set	.LANCHOR3,. + 0
 1009              	_ZL21gWheel_Configurations:
 1010 0000 00000000 		.space	208
 1010      00000000 
 1010      00000000 
 1010      00000000 
 1010      00000000 
 1011              		.section	.bss._ZL4gPID,"aw",%nobits
 1012              		.align	2
 1013              		.set	.LANCHOR1,. + 0
 1016              	_ZL4gPID:
ARM GAS  C:\Users\073be\AppData\Local\Temp\ccwGO8Fo.s 			page 26


 1017 0000 00000000 		.space	16
 1017      00000000 
 1017      00000000 
 1017      00000000 
 1018              		.section	.bss._ZL9gDisc_PID,"aw",%nobits
 1019              		.align	2
 1020              		.set	.LANCHOR0,. + 0
 1023              	_ZL9gDisc_PID:
 1024 0000 00000000 		.space	144
 1024      00000000 
 1024      00000000 
 1024      00000000 
 1024      00000000 
 1025              		.section	.bss.gWheels,"aw",%nobits
 1026              		.align	2
 1027              		.set	.LANCHOR2,. + 0
 1030              	gWheels:
 1031 0000 00000000 		.space	48
 1031      00000000 
 1031      00000000 
 1031      00000000 
 1031      00000000 
 1032              		.text
 1033              	.Letext0:
 1034              		.file 5 "c:\\program files (x86)\\gnu tools arm embedded\\7 2017-q4-major\\arm-none-eabi\\include\
 1035              		.file 6 "c:\\program files (x86)\\gnu tools arm embedded\\7 2017-q4-major\\arm-none-eabi\\include\
 1036              		.file 7 "C:/Users/073be/STM32Cube/Repository/STM32Cube_FW_F4_V1.23.0/Drivers/CMSIS/Include/core_cm
 1037              		.file 8 "C:/Users/073be/STM32Cube/Repository/STM32Cube_FW_F4_V1.23.0/Drivers/CMSIS/Device/ST/STM32
 1038              		.file 9 "C:/Users/073be/STM32Cube/Repository/STM32Cube_FW_F4_V1.23.0/Drivers/CMSIS/Device/ST/STM32
 1039              		.file 10 "C:/Users/073be/STM32Cube/Repository/STM32Cube_FW_F4_V1.23.0/Drivers/CMSIS/Device/ST/STM3
 1040              		.file 11 "c:\\program files (x86)\\gnu tools arm embedded\\7 2017-q4-major\\arm-none-eabi\\include
 1041              		.file 12 "c:\\program files (x86)\\gnu tools arm embedded\\7 2017-q4-major\\arm-none-eabi\\include
 1042              		.file 13 "c:\\program files (x86)\\gnu tools arm embedded\\7 2017-q4-major\\lib\\gcc\\arm-none-eab
 1043              		.file 14 "c:\\program files (x86)\\gnu tools arm embedded\\7 2017-q4-major\\arm-none-eabi\\include
 1044              		.file 15 "C:/Users/073be/STM32Cube/Repository/STM32Cube_FW_F4_V1.23.0/Drivers/STM32F4xx_HAL_Driver
 1045              		.file 16 "C:/Users/073be/STM32Cube/Repository/STM32Cube_FW_F4_V1.23.0/Drivers/STM32F4xx_HAL_Driver
 1046              		.file 17 "C:/Users/073be/STM32Cube/Repository/STM32Cube_FW_F4_V1.23.0/Drivers/STM32F4xx_HAL_Driver
 1047              		.file 18 "C:/Users/073be/STM32Cube/Repository/STM32Cube_FW_F4_V1.23.0/Drivers/STM32F4xx_HAL_Driver
 1048              		.file 19 "C:/Users/073be/STM32Cube/Repository/STM32Cube_FW_F4_V1.23.0/Drivers/STM32F4xx_HAL_Driver
 1049              		.file 20 "C:/Users/073be/STM32Cube/Repository/STM32Cube_FW_F4_V1.23.0/Drivers/STM32F4xx_HAL_Driver
 1050              		.file 21 "Core/Inc\\periphs/tim.h"
 1051              		.file 22 "Core/Inc\\periphs/usart.h"
 1052              		.file 23 "Core/Inc\\periphs/adc.h"
ARM GAS  C:\Users\073be\AppData\Local\Temp\ccwGO8Fo.s 			page 27

