ARM GAS  C:\Users\073be\AppData\Local\Temp\cceGulUG.s 			page 1


   1              		.cpu cortex-m4
   2              		.eabi_attribute 27, 1
   3              		.eabi_attribute 28, 1
   4              		.eabi_attribute 20, 1
   5              		.eabi_attribute 21, 1
   6              		.eabi_attribute 23, 3
   7              		.eabi_attribute 24, 1
   8              		.eabi_attribute 25, 1
   9              		.eabi_attribute 26, 1
  10              		.eabi_attribute 30, 1
  11              		.eabi_attribute 34, 1
  12              		.eabi_attribute 18, 4
  13              		.file	"stm32f4xx_hal_flash.c"
  14              		.text
  15              	.Ltext0:
  16              		.cfi_sections	.debug_frame
  17              		.section	.text.FLASH_SetErrorCode,"ax",%progbits
  18              		.align	1
  19              		.syntax unified
  20              		.thumb
  21              		.thumb_func
  22              		.fpu fpv4-sp-d16
  24              	FLASH_SetErrorCode:
  25              	.LFB142:
  26              		.file 1 "C:/Users/073be/STM32Cube/Repository/STM32Cube_FW_F4_V1.23.0/Drivers/STM32F4xx_HAL_Driver/
   1:C:/Users/073be/STM32Cube/Repository/STM32Cube_FW_F4_V1.23.0/Drivers/STM32F4xx_HAL_Driver/Src\stm32f4xx_hal_flash.c **** /**
   2:C:/Users/073be/STM32Cube/Repository/STM32Cube_FW_F4_V1.23.0/Drivers/STM32F4xx_HAL_Driver/Src\stm32f4xx_hal_flash.c ****   ******************************************************************************
   3:C:/Users/073be/STM32Cube/Repository/STM32Cube_FW_F4_V1.23.0/Drivers/STM32F4xx_HAL_Driver/Src\stm32f4xx_hal_flash.c ****   * @file    stm32f4xx_hal_flash.c
   4:C:/Users/073be/STM32Cube/Repository/STM32Cube_FW_F4_V1.23.0/Drivers/STM32F4xx_HAL_Driver/Src\stm32f4xx_hal_flash.c ****   * @author  MCD Application Team
   5:C:/Users/073be/STM32Cube/Repository/STM32Cube_FW_F4_V1.23.0/Drivers/STM32F4xx_HAL_Driver/Src\stm32f4xx_hal_flash.c ****   * @brief   FLASH HAL module driver.
   6:C:/Users/073be/STM32Cube/Repository/STM32Cube_FW_F4_V1.23.0/Drivers/STM32F4xx_HAL_Driver/Src\stm32f4xx_hal_flash.c ****   *          This file provides firmware functions to manage the following 
   7:C:/Users/073be/STM32Cube/Repository/STM32Cube_FW_F4_V1.23.0/Drivers/STM32F4xx_HAL_Driver/Src\stm32f4xx_hal_flash.c ****   *          functionalities of the internal FLASH memory:
   8:C:/Users/073be/STM32Cube/Repository/STM32Cube_FW_F4_V1.23.0/Drivers/STM32F4xx_HAL_Driver/Src\stm32f4xx_hal_flash.c ****   *           + Program operations functions
   9:C:/Users/073be/STM32Cube/Repository/STM32Cube_FW_F4_V1.23.0/Drivers/STM32F4xx_HAL_Driver/Src\stm32f4xx_hal_flash.c ****   *           + Memory Control functions 
  10:C:/Users/073be/STM32Cube/Repository/STM32Cube_FW_F4_V1.23.0/Drivers/STM32F4xx_HAL_Driver/Src\stm32f4xx_hal_flash.c ****   *           + Peripheral Errors functions
  11:C:/Users/073be/STM32Cube/Repository/STM32Cube_FW_F4_V1.23.0/Drivers/STM32F4xx_HAL_Driver/Src\stm32f4xx_hal_flash.c ****   *         
  12:C:/Users/073be/STM32Cube/Repository/STM32Cube_FW_F4_V1.23.0/Drivers/STM32F4xx_HAL_Driver/Src\stm32f4xx_hal_flash.c ****   @verbatim
  13:C:/Users/073be/STM32Cube/Repository/STM32Cube_FW_F4_V1.23.0/Drivers/STM32F4xx_HAL_Driver/Src\stm32f4xx_hal_flash.c ****   ==============================================================================
  14:C:/Users/073be/STM32Cube/Repository/STM32Cube_FW_F4_V1.23.0/Drivers/STM32F4xx_HAL_Driver/Src\stm32f4xx_hal_flash.c ****                         ##### FLASH peripheral features #####
  15:C:/Users/073be/STM32Cube/Repository/STM32Cube_FW_F4_V1.23.0/Drivers/STM32F4xx_HAL_Driver/Src\stm32f4xx_hal_flash.c ****   ==============================================================================
  16:C:/Users/073be/STM32Cube/Repository/STM32Cube_FW_F4_V1.23.0/Drivers/STM32F4xx_HAL_Driver/Src\stm32f4xx_hal_flash.c ****            
  17:C:/Users/073be/STM32Cube/Repository/STM32Cube_FW_F4_V1.23.0/Drivers/STM32F4xx_HAL_Driver/Src\stm32f4xx_hal_flash.c ****   [..] The Flash memory interface manages CPU AHB I-Code and D-Code accesses 
  18:C:/Users/073be/STM32Cube/Repository/STM32Cube_FW_F4_V1.23.0/Drivers/STM32F4xx_HAL_Driver/Src\stm32f4xx_hal_flash.c ****        to the Flash memory. It implements the erase and program Flash memory operations 
  19:C:/Users/073be/STM32Cube/Repository/STM32Cube_FW_F4_V1.23.0/Drivers/STM32F4xx_HAL_Driver/Src\stm32f4xx_hal_flash.c ****        and the read and write protection mechanisms.
  20:C:/Users/073be/STM32Cube/Repository/STM32Cube_FW_F4_V1.23.0/Drivers/STM32F4xx_HAL_Driver/Src\stm32f4xx_hal_flash.c ****       
  21:C:/Users/073be/STM32Cube/Repository/STM32Cube_FW_F4_V1.23.0/Drivers/STM32F4xx_HAL_Driver/Src\stm32f4xx_hal_flash.c ****   [..] The Flash memory interface accelerates code execution with a system of instruction
  22:C:/Users/073be/STM32Cube/Repository/STM32Cube_FW_F4_V1.23.0/Drivers/STM32F4xx_HAL_Driver/Src\stm32f4xx_hal_flash.c ****        prefetch and cache lines. 
  23:C:/Users/073be/STM32Cube/Repository/STM32Cube_FW_F4_V1.23.0/Drivers/STM32F4xx_HAL_Driver/Src\stm32f4xx_hal_flash.c **** 
  24:C:/Users/073be/STM32Cube/Repository/STM32Cube_FW_F4_V1.23.0/Drivers/STM32F4xx_HAL_Driver/Src\stm32f4xx_hal_flash.c ****   [..] The FLASH main features are:
  25:C:/Users/073be/STM32Cube/Repository/STM32Cube_FW_F4_V1.23.0/Drivers/STM32F4xx_HAL_Driver/Src\stm32f4xx_hal_flash.c ****       (+) Flash memory read operations
  26:C:/Users/073be/STM32Cube/Repository/STM32Cube_FW_F4_V1.23.0/Drivers/STM32F4xx_HAL_Driver/Src\stm32f4xx_hal_flash.c ****       (+) Flash memory program/erase operations
  27:C:/Users/073be/STM32Cube/Repository/STM32Cube_FW_F4_V1.23.0/Drivers/STM32F4xx_HAL_Driver/Src\stm32f4xx_hal_flash.c ****       (+) Read / write protections
  28:C:/Users/073be/STM32Cube/Repository/STM32Cube_FW_F4_V1.23.0/Drivers/STM32F4xx_HAL_Driver/Src\stm32f4xx_hal_flash.c ****       (+) Prefetch on I-Code
  29:C:/Users/073be/STM32Cube/Repository/STM32Cube_FW_F4_V1.23.0/Drivers/STM32F4xx_HAL_Driver/Src\stm32f4xx_hal_flash.c ****       (+) 64 cache lines of 128 bits on I-Code
  30:C:/Users/073be/STM32Cube/Repository/STM32Cube_FW_F4_V1.23.0/Drivers/STM32F4xx_HAL_Driver/Src\stm32f4xx_hal_flash.c ****       (+) 8 cache lines of 128 bits on D-Code
  31:C:/Users/073be/STM32Cube/Repository/STM32Cube_FW_F4_V1.23.0/Drivers/STM32F4xx_HAL_Driver/Src\stm32f4xx_hal_flash.c ****       
  32:C:/Users/073be/STM32Cube/Repository/STM32Cube_FW_F4_V1.23.0/Drivers/STM32F4xx_HAL_Driver/Src\stm32f4xx_hal_flash.c ****       
ARM GAS  C:\Users\073be\AppData\Local\Temp\cceGulUG.s 			page 2


  33:C:/Users/073be/STM32Cube/Repository/STM32Cube_FW_F4_V1.23.0/Drivers/STM32F4xx_HAL_Driver/Src\stm32f4xx_hal_flash.c ****                      ##### How to use this driver #####
  34:C:/Users/073be/STM32Cube/Repository/STM32Cube_FW_F4_V1.23.0/Drivers/STM32F4xx_HAL_Driver/Src\stm32f4xx_hal_flash.c ****   ==============================================================================
  35:C:/Users/073be/STM32Cube/Repository/STM32Cube_FW_F4_V1.23.0/Drivers/STM32F4xx_HAL_Driver/Src\stm32f4xx_hal_flash.c ****     [..]                             
  36:C:/Users/073be/STM32Cube/Repository/STM32Cube_FW_F4_V1.23.0/Drivers/STM32F4xx_HAL_Driver/Src\stm32f4xx_hal_flash.c ****       This driver provides functions and macros to configure and program the FLASH 
  37:C:/Users/073be/STM32Cube/Repository/STM32Cube_FW_F4_V1.23.0/Drivers/STM32F4xx_HAL_Driver/Src\stm32f4xx_hal_flash.c ****       memory of all STM32F4xx devices.
  38:C:/Users/073be/STM32Cube/Repository/STM32Cube_FW_F4_V1.23.0/Drivers/STM32F4xx_HAL_Driver/Src\stm32f4xx_hal_flash.c ****     
  39:C:/Users/073be/STM32Cube/Repository/STM32Cube_FW_F4_V1.23.0/Drivers/STM32F4xx_HAL_Driver/Src\stm32f4xx_hal_flash.c ****       (#) FLASH Memory IO Programming functions: 
  40:C:/Users/073be/STM32Cube/Repository/STM32Cube_FW_F4_V1.23.0/Drivers/STM32F4xx_HAL_Driver/Src\stm32f4xx_hal_flash.c ****            (++) Lock and Unlock the FLASH interface using HAL_FLASH_Unlock() and 
  41:C:/Users/073be/STM32Cube/Repository/STM32Cube_FW_F4_V1.23.0/Drivers/STM32F4xx_HAL_Driver/Src\stm32f4xx_hal_flash.c ****                 HAL_FLASH_Lock() functions
  42:C:/Users/073be/STM32Cube/Repository/STM32Cube_FW_F4_V1.23.0/Drivers/STM32F4xx_HAL_Driver/Src\stm32f4xx_hal_flash.c ****            (++) Program functions: byte, half word, word and double word
  43:C:/Users/073be/STM32Cube/Repository/STM32Cube_FW_F4_V1.23.0/Drivers/STM32F4xx_HAL_Driver/Src\stm32f4xx_hal_flash.c ****            (++) There Two modes of programming :
  44:C:/Users/073be/STM32Cube/Repository/STM32Cube_FW_F4_V1.23.0/Drivers/STM32F4xx_HAL_Driver/Src\stm32f4xx_hal_flash.c ****             (+++) Polling mode using HAL_FLASH_Program() function
  45:C:/Users/073be/STM32Cube/Repository/STM32Cube_FW_F4_V1.23.0/Drivers/STM32F4xx_HAL_Driver/Src\stm32f4xx_hal_flash.c ****             (+++) Interrupt mode using HAL_FLASH_Program_IT() function
  46:C:/Users/073be/STM32Cube/Repository/STM32Cube_FW_F4_V1.23.0/Drivers/STM32F4xx_HAL_Driver/Src\stm32f4xx_hal_flash.c ****     
  47:C:/Users/073be/STM32Cube/Repository/STM32Cube_FW_F4_V1.23.0/Drivers/STM32F4xx_HAL_Driver/Src\stm32f4xx_hal_flash.c ****       (#) Interrupts and flags management functions : 
  48:C:/Users/073be/STM32Cube/Repository/STM32Cube_FW_F4_V1.23.0/Drivers/STM32F4xx_HAL_Driver/Src\stm32f4xx_hal_flash.c ****            (++) Handle FLASH interrupts by calling HAL_FLASH_IRQHandler()
  49:C:/Users/073be/STM32Cube/Repository/STM32Cube_FW_F4_V1.23.0/Drivers/STM32F4xx_HAL_Driver/Src\stm32f4xx_hal_flash.c ****            (++) Wait for last FLASH operation according to its status
  50:C:/Users/073be/STM32Cube/Repository/STM32Cube_FW_F4_V1.23.0/Drivers/STM32F4xx_HAL_Driver/Src\stm32f4xx_hal_flash.c ****            (++) Get error flag status by calling HAL_SetErrorCode()          
  51:C:/Users/073be/STM32Cube/Repository/STM32Cube_FW_F4_V1.23.0/Drivers/STM32F4xx_HAL_Driver/Src\stm32f4xx_hal_flash.c **** 
  52:C:/Users/073be/STM32Cube/Repository/STM32Cube_FW_F4_V1.23.0/Drivers/STM32F4xx_HAL_Driver/Src\stm32f4xx_hal_flash.c ****     [..] 
  53:C:/Users/073be/STM32Cube/Repository/STM32Cube_FW_F4_V1.23.0/Drivers/STM32F4xx_HAL_Driver/Src\stm32f4xx_hal_flash.c ****       In addition to these functions, this driver includes a set of macros allowing
  54:C:/Users/073be/STM32Cube/Repository/STM32Cube_FW_F4_V1.23.0/Drivers/STM32F4xx_HAL_Driver/Src\stm32f4xx_hal_flash.c ****       to handle the following operations:
  55:C:/Users/073be/STM32Cube/Repository/STM32Cube_FW_F4_V1.23.0/Drivers/STM32F4xx_HAL_Driver/Src\stm32f4xx_hal_flash.c ****        (+) Set the latency
  56:C:/Users/073be/STM32Cube/Repository/STM32Cube_FW_F4_V1.23.0/Drivers/STM32F4xx_HAL_Driver/Src\stm32f4xx_hal_flash.c ****        (+) Enable/Disable the prefetch buffer
  57:C:/Users/073be/STM32Cube/Repository/STM32Cube_FW_F4_V1.23.0/Drivers/STM32F4xx_HAL_Driver/Src\stm32f4xx_hal_flash.c ****        (+) Enable/Disable the Instruction cache and the Data cache
  58:C:/Users/073be/STM32Cube/Repository/STM32Cube_FW_F4_V1.23.0/Drivers/STM32F4xx_HAL_Driver/Src\stm32f4xx_hal_flash.c ****        (+) Reset the Instruction cache and the Data cache
  59:C:/Users/073be/STM32Cube/Repository/STM32Cube_FW_F4_V1.23.0/Drivers/STM32F4xx_HAL_Driver/Src\stm32f4xx_hal_flash.c ****        (+) Enable/Disable the FLASH interrupts
  60:C:/Users/073be/STM32Cube/Repository/STM32Cube_FW_F4_V1.23.0/Drivers/STM32F4xx_HAL_Driver/Src\stm32f4xx_hal_flash.c ****        (+) Monitor the FLASH flags status
  61:C:/Users/073be/STM32Cube/Repository/STM32Cube_FW_F4_V1.23.0/Drivers/STM32F4xx_HAL_Driver/Src\stm32f4xx_hal_flash.c ****           
  62:C:/Users/073be/STM32Cube/Repository/STM32Cube_FW_F4_V1.23.0/Drivers/STM32F4xx_HAL_Driver/Src\stm32f4xx_hal_flash.c ****   @endverbatim
  63:C:/Users/073be/STM32Cube/Repository/STM32Cube_FW_F4_V1.23.0/Drivers/STM32F4xx_HAL_Driver/Src\stm32f4xx_hal_flash.c ****   ******************************************************************************
  64:C:/Users/073be/STM32Cube/Repository/STM32Cube_FW_F4_V1.23.0/Drivers/STM32F4xx_HAL_Driver/Src\stm32f4xx_hal_flash.c ****   * @attention
  65:C:/Users/073be/STM32Cube/Repository/STM32Cube_FW_F4_V1.23.0/Drivers/STM32F4xx_HAL_Driver/Src\stm32f4xx_hal_flash.c ****   *
  66:C:/Users/073be/STM32Cube/Repository/STM32Cube_FW_F4_V1.23.0/Drivers/STM32F4xx_HAL_Driver/Src\stm32f4xx_hal_flash.c ****   * <h2><center>&copy; COPYRIGHT(c) 2017 STMicroelectronics</center></h2>
  67:C:/Users/073be/STM32Cube/Repository/STM32Cube_FW_F4_V1.23.0/Drivers/STM32F4xx_HAL_Driver/Src\stm32f4xx_hal_flash.c ****   *
  68:C:/Users/073be/STM32Cube/Repository/STM32Cube_FW_F4_V1.23.0/Drivers/STM32F4xx_HAL_Driver/Src\stm32f4xx_hal_flash.c ****   * Redistribution and use in source and binary forms, with or without modification,
  69:C:/Users/073be/STM32Cube/Repository/STM32Cube_FW_F4_V1.23.0/Drivers/STM32F4xx_HAL_Driver/Src\stm32f4xx_hal_flash.c ****   * are permitted provided that the following conditions are met:
  70:C:/Users/073be/STM32Cube/Repository/STM32Cube_FW_F4_V1.23.0/Drivers/STM32F4xx_HAL_Driver/Src\stm32f4xx_hal_flash.c ****   *   1. Redistributions of source code must retain the above copyright notice,
  71:C:/Users/073be/STM32Cube/Repository/STM32Cube_FW_F4_V1.23.0/Drivers/STM32F4xx_HAL_Driver/Src\stm32f4xx_hal_flash.c ****   *      this list of conditions and the following disclaimer.
  72:C:/Users/073be/STM32Cube/Repository/STM32Cube_FW_F4_V1.23.0/Drivers/STM32F4xx_HAL_Driver/Src\stm32f4xx_hal_flash.c ****   *   2. Redistributions in binary form must reproduce the above copyright notice,
  73:C:/Users/073be/STM32Cube/Repository/STM32Cube_FW_F4_V1.23.0/Drivers/STM32F4xx_HAL_Driver/Src\stm32f4xx_hal_flash.c ****   *      this list of conditions and the following disclaimer in the documentation
  74:C:/Users/073be/STM32Cube/Repository/STM32Cube_FW_F4_V1.23.0/Drivers/STM32F4xx_HAL_Driver/Src\stm32f4xx_hal_flash.c ****   *      and/or other materials provided with the distribution.
  75:C:/Users/073be/STM32Cube/Repository/STM32Cube_FW_F4_V1.23.0/Drivers/STM32F4xx_HAL_Driver/Src\stm32f4xx_hal_flash.c ****   *   3. Neither the name of STMicroelectronics nor the names of its contributors
  76:C:/Users/073be/STM32Cube/Repository/STM32Cube_FW_F4_V1.23.0/Drivers/STM32F4xx_HAL_Driver/Src\stm32f4xx_hal_flash.c ****   *      may be used to endorse or promote products derived from this software
  77:C:/Users/073be/STM32Cube/Repository/STM32Cube_FW_F4_V1.23.0/Drivers/STM32F4xx_HAL_Driver/Src\stm32f4xx_hal_flash.c ****   *      without specific prior written permission.
  78:C:/Users/073be/STM32Cube/Repository/STM32Cube_FW_F4_V1.23.0/Drivers/STM32F4xx_HAL_Driver/Src\stm32f4xx_hal_flash.c ****   *
  79:C:/Users/073be/STM32Cube/Repository/STM32Cube_FW_F4_V1.23.0/Drivers/STM32F4xx_HAL_Driver/Src\stm32f4xx_hal_flash.c ****   * THIS SOFTWARE IS PROVIDED BY THE COPYRIGHT HOLDERS AND CONTRIBUTORS "AS IS"
  80:C:/Users/073be/STM32Cube/Repository/STM32Cube_FW_F4_V1.23.0/Drivers/STM32F4xx_HAL_Driver/Src\stm32f4xx_hal_flash.c ****   * AND ANY EXPRESS OR IMPLIED WARRANTIES, INCLUDING, BUT NOT LIMITED TO, THE
  81:C:/Users/073be/STM32Cube/Repository/STM32Cube_FW_F4_V1.23.0/Drivers/STM32F4xx_HAL_Driver/Src\stm32f4xx_hal_flash.c ****   * IMPLIED WARRANTIES OF MERCHANTABILITY AND FITNESS FOR A PARTICULAR PURPOSE ARE
  82:C:/Users/073be/STM32Cube/Repository/STM32Cube_FW_F4_V1.23.0/Drivers/STM32F4xx_HAL_Driver/Src\stm32f4xx_hal_flash.c ****   * DISCLAIMED. IN NO EVENT SHALL THE COPYRIGHT HOLDER OR CONTRIBUTORS BE LIABLE
  83:C:/Users/073be/STM32Cube/Repository/STM32Cube_FW_F4_V1.23.0/Drivers/STM32F4xx_HAL_Driver/Src\stm32f4xx_hal_flash.c ****   * FOR ANY DIRECT, INDIRECT, INCIDENTAL, SPECIAL, EXEMPLARY, OR CONSEQUENTIAL
  84:C:/Users/073be/STM32Cube/Repository/STM32Cube_FW_F4_V1.23.0/Drivers/STM32F4xx_HAL_Driver/Src\stm32f4xx_hal_flash.c ****   * DAMAGES (INCLUDING, BUT NOT LIMITED TO, PROCUREMENT OF SUBSTITUTE GOODS OR
  85:C:/Users/073be/STM32Cube/Repository/STM32Cube_FW_F4_V1.23.0/Drivers/STM32F4xx_HAL_Driver/Src\stm32f4xx_hal_flash.c ****   * SERVICES; LOSS OF USE, DATA, OR PROFITS; OR BUSINESS INTERRUPTION) HOWEVER
  86:C:/Users/073be/STM32Cube/Repository/STM32Cube_FW_F4_V1.23.0/Drivers/STM32F4xx_HAL_Driver/Src\stm32f4xx_hal_flash.c ****   * CAUSED AND ON ANY THEORY OF LIABILITY, WHETHER IN CONTRACT, STRICT LIABILITY,
  87:C:/Users/073be/STM32Cube/Repository/STM32Cube_FW_F4_V1.23.0/Drivers/STM32F4xx_HAL_Driver/Src\stm32f4xx_hal_flash.c ****   * OR TORT (INCLUDING NEGLIGENCE OR OTHERWISE) ARISING IN ANY WAY OUT OF THE USE
  88:C:/Users/073be/STM32Cube/Repository/STM32Cube_FW_F4_V1.23.0/Drivers/STM32F4xx_HAL_Driver/Src\stm32f4xx_hal_flash.c ****   * OF THIS SOFTWARE, EVEN IF ADVISED OF THE POSSIBILITY OF SUCH DAMAGE.
  89:C:/Users/073be/STM32Cube/Repository/STM32Cube_FW_F4_V1.23.0/Drivers/STM32F4xx_HAL_Driver/Src\stm32f4xx_hal_flash.c ****   *
ARM GAS  C:\Users\073be\AppData\Local\Temp\cceGulUG.s 			page 3


  90:C:/Users/073be/STM32Cube/Repository/STM32Cube_FW_F4_V1.23.0/Drivers/STM32F4xx_HAL_Driver/Src\stm32f4xx_hal_flash.c ****   ******************************************************************************
  91:C:/Users/073be/STM32Cube/Repository/STM32Cube_FW_F4_V1.23.0/Drivers/STM32F4xx_HAL_Driver/Src\stm32f4xx_hal_flash.c ****   */ 
  92:C:/Users/073be/STM32Cube/Repository/STM32Cube_FW_F4_V1.23.0/Drivers/STM32F4xx_HAL_Driver/Src\stm32f4xx_hal_flash.c **** 
  93:C:/Users/073be/STM32Cube/Repository/STM32Cube_FW_F4_V1.23.0/Drivers/STM32F4xx_HAL_Driver/Src\stm32f4xx_hal_flash.c **** /* Includes ------------------------------------------------------------------*/
  94:C:/Users/073be/STM32Cube/Repository/STM32Cube_FW_F4_V1.23.0/Drivers/STM32F4xx_HAL_Driver/Src\stm32f4xx_hal_flash.c **** #include "stm32f4xx_hal.h"
  95:C:/Users/073be/STM32Cube/Repository/STM32Cube_FW_F4_V1.23.0/Drivers/STM32F4xx_HAL_Driver/Src\stm32f4xx_hal_flash.c **** 
  96:C:/Users/073be/STM32Cube/Repository/STM32Cube_FW_F4_V1.23.0/Drivers/STM32F4xx_HAL_Driver/Src\stm32f4xx_hal_flash.c **** /** @addtogroup STM32F4xx_HAL_Driver
  97:C:/Users/073be/STM32Cube/Repository/STM32Cube_FW_F4_V1.23.0/Drivers/STM32F4xx_HAL_Driver/Src\stm32f4xx_hal_flash.c ****   * @{
  98:C:/Users/073be/STM32Cube/Repository/STM32Cube_FW_F4_V1.23.0/Drivers/STM32F4xx_HAL_Driver/Src\stm32f4xx_hal_flash.c ****   */
  99:C:/Users/073be/STM32Cube/Repository/STM32Cube_FW_F4_V1.23.0/Drivers/STM32F4xx_HAL_Driver/Src\stm32f4xx_hal_flash.c **** 
 100:C:/Users/073be/STM32Cube/Repository/STM32Cube_FW_F4_V1.23.0/Drivers/STM32F4xx_HAL_Driver/Src\stm32f4xx_hal_flash.c **** /** @defgroup FLASH FLASH
 101:C:/Users/073be/STM32Cube/Repository/STM32Cube_FW_F4_V1.23.0/Drivers/STM32F4xx_HAL_Driver/Src\stm32f4xx_hal_flash.c ****   * @brief FLASH HAL module driver
 102:C:/Users/073be/STM32Cube/Repository/STM32Cube_FW_F4_V1.23.0/Drivers/STM32F4xx_HAL_Driver/Src\stm32f4xx_hal_flash.c ****   * @{
 103:C:/Users/073be/STM32Cube/Repository/STM32Cube_FW_F4_V1.23.0/Drivers/STM32F4xx_HAL_Driver/Src\stm32f4xx_hal_flash.c ****   */
 104:C:/Users/073be/STM32Cube/Repository/STM32Cube_FW_F4_V1.23.0/Drivers/STM32F4xx_HAL_Driver/Src\stm32f4xx_hal_flash.c **** 
 105:C:/Users/073be/STM32Cube/Repository/STM32Cube_FW_F4_V1.23.0/Drivers/STM32F4xx_HAL_Driver/Src\stm32f4xx_hal_flash.c **** #ifdef HAL_FLASH_MODULE_ENABLED
 106:C:/Users/073be/STM32Cube/Repository/STM32Cube_FW_F4_V1.23.0/Drivers/STM32F4xx_HAL_Driver/Src\stm32f4xx_hal_flash.c **** 
 107:C:/Users/073be/STM32Cube/Repository/STM32Cube_FW_F4_V1.23.0/Drivers/STM32F4xx_HAL_Driver/Src\stm32f4xx_hal_flash.c **** /* Private typedef -----------------------------------------------------------*/
 108:C:/Users/073be/STM32Cube/Repository/STM32Cube_FW_F4_V1.23.0/Drivers/STM32F4xx_HAL_Driver/Src\stm32f4xx_hal_flash.c **** /* Private define ------------------------------------------------------------*/
 109:C:/Users/073be/STM32Cube/Repository/STM32Cube_FW_F4_V1.23.0/Drivers/STM32F4xx_HAL_Driver/Src\stm32f4xx_hal_flash.c **** /** @addtogroup FLASH_Private_Constants
 110:C:/Users/073be/STM32Cube/Repository/STM32Cube_FW_F4_V1.23.0/Drivers/STM32F4xx_HAL_Driver/Src\stm32f4xx_hal_flash.c ****   * @{
 111:C:/Users/073be/STM32Cube/Repository/STM32Cube_FW_F4_V1.23.0/Drivers/STM32F4xx_HAL_Driver/Src\stm32f4xx_hal_flash.c ****   */
 112:C:/Users/073be/STM32Cube/Repository/STM32Cube_FW_F4_V1.23.0/Drivers/STM32F4xx_HAL_Driver/Src\stm32f4xx_hal_flash.c **** #define FLASH_TIMEOUT_VALUE       50000U /* 50 s */
 113:C:/Users/073be/STM32Cube/Repository/STM32Cube_FW_F4_V1.23.0/Drivers/STM32F4xx_HAL_Driver/Src\stm32f4xx_hal_flash.c **** /**
 114:C:/Users/073be/STM32Cube/Repository/STM32Cube_FW_F4_V1.23.0/Drivers/STM32F4xx_HAL_Driver/Src\stm32f4xx_hal_flash.c ****   * @}
 115:C:/Users/073be/STM32Cube/Repository/STM32Cube_FW_F4_V1.23.0/Drivers/STM32F4xx_HAL_Driver/Src\stm32f4xx_hal_flash.c ****   */         
 116:C:/Users/073be/STM32Cube/Repository/STM32Cube_FW_F4_V1.23.0/Drivers/STM32F4xx_HAL_Driver/Src\stm32f4xx_hal_flash.c **** /* Private macro -------------------------------------------------------------*/
 117:C:/Users/073be/STM32Cube/Repository/STM32Cube_FW_F4_V1.23.0/Drivers/STM32F4xx_HAL_Driver/Src\stm32f4xx_hal_flash.c **** /* Private variables ---------------------------------------------------------*/
 118:C:/Users/073be/STM32Cube/Repository/STM32Cube_FW_F4_V1.23.0/Drivers/STM32F4xx_HAL_Driver/Src\stm32f4xx_hal_flash.c **** /** @addtogroup FLASH_Private_Variables
 119:C:/Users/073be/STM32Cube/Repository/STM32Cube_FW_F4_V1.23.0/Drivers/STM32F4xx_HAL_Driver/Src\stm32f4xx_hal_flash.c ****   * @{
 120:C:/Users/073be/STM32Cube/Repository/STM32Cube_FW_F4_V1.23.0/Drivers/STM32F4xx_HAL_Driver/Src\stm32f4xx_hal_flash.c ****   */
 121:C:/Users/073be/STM32Cube/Repository/STM32Cube_FW_F4_V1.23.0/Drivers/STM32F4xx_HAL_Driver/Src\stm32f4xx_hal_flash.c **** /* Variable used for Erase sectors under interruption */
 122:C:/Users/073be/STM32Cube/Repository/STM32Cube_FW_F4_V1.23.0/Drivers/STM32F4xx_HAL_Driver/Src\stm32f4xx_hal_flash.c **** FLASH_ProcessTypeDef pFlash;
 123:C:/Users/073be/STM32Cube/Repository/STM32Cube_FW_F4_V1.23.0/Drivers/STM32F4xx_HAL_Driver/Src\stm32f4xx_hal_flash.c **** /**
 124:C:/Users/073be/STM32Cube/Repository/STM32Cube_FW_F4_V1.23.0/Drivers/STM32F4xx_HAL_Driver/Src\stm32f4xx_hal_flash.c ****   * @}
 125:C:/Users/073be/STM32Cube/Repository/STM32Cube_FW_F4_V1.23.0/Drivers/STM32F4xx_HAL_Driver/Src\stm32f4xx_hal_flash.c ****   */
 126:C:/Users/073be/STM32Cube/Repository/STM32Cube_FW_F4_V1.23.0/Drivers/STM32F4xx_HAL_Driver/Src\stm32f4xx_hal_flash.c **** 
 127:C:/Users/073be/STM32Cube/Repository/STM32Cube_FW_F4_V1.23.0/Drivers/STM32F4xx_HAL_Driver/Src\stm32f4xx_hal_flash.c **** /* Private function prototypes -----------------------------------------------*/
 128:C:/Users/073be/STM32Cube/Repository/STM32Cube_FW_F4_V1.23.0/Drivers/STM32F4xx_HAL_Driver/Src\stm32f4xx_hal_flash.c **** /** @addtogroup FLASH_Private_Functions
 129:C:/Users/073be/STM32Cube/Repository/STM32Cube_FW_F4_V1.23.0/Drivers/STM32F4xx_HAL_Driver/Src\stm32f4xx_hal_flash.c ****   * @{
 130:C:/Users/073be/STM32Cube/Repository/STM32Cube_FW_F4_V1.23.0/Drivers/STM32F4xx_HAL_Driver/Src\stm32f4xx_hal_flash.c ****   */
 131:C:/Users/073be/STM32Cube/Repository/STM32Cube_FW_F4_V1.23.0/Drivers/STM32F4xx_HAL_Driver/Src\stm32f4xx_hal_flash.c **** /* Program operations */
 132:C:/Users/073be/STM32Cube/Repository/STM32Cube_FW_F4_V1.23.0/Drivers/STM32F4xx_HAL_Driver/Src\stm32f4xx_hal_flash.c **** static void   FLASH_Program_DoubleWord(uint32_t Address, uint64_t Data);
 133:C:/Users/073be/STM32Cube/Repository/STM32Cube_FW_F4_V1.23.0/Drivers/STM32F4xx_HAL_Driver/Src\stm32f4xx_hal_flash.c **** static void   FLASH_Program_Word(uint32_t Address, uint32_t Data);
 134:C:/Users/073be/STM32Cube/Repository/STM32Cube_FW_F4_V1.23.0/Drivers/STM32F4xx_HAL_Driver/Src\stm32f4xx_hal_flash.c **** static void   FLASH_Program_HalfWord(uint32_t Address, uint16_t Data);
 135:C:/Users/073be/STM32Cube/Repository/STM32Cube_FW_F4_V1.23.0/Drivers/STM32F4xx_HAL_Driver/Src\stm32f4xx_hal_flash.c **** static void   FLASH_Program_Byte(uint32_t Address, uint8_t Data);
 136:C:/Users/073be/STM32Cube/Repository/STM32Cube_FW_F4_V1.23.0/Drivers/STM32F4xx_HAL_Driver/Src\stm32f4xx_hal_flash.c **** static void   FLASH_SetErrorCode(void);
 137:C:/Users/073be/STM32Cube/Repository/STM32Cube_FW_F4_V1.23.0/Drivers/STM32F4xx_HAL_Driver/Src\stm32f4xx_hal_flash.c **** 
 138:C:/Users/073be/STM32Cube/Repository/STM32Cube_FW_F4_V1.23.0/Drivers/STM32F4xx_HAL_Driver/Src\stm32f4xx_hal_flash.c **** HAL_StatusTypeDef FLASH_WaitForLastOperation(uint32_t Timeout);
 139:C:/Users/073be/STM32Cube/Repository/STM32Cube_FW_F4_V1.23.0/Drivers/STM32F4xx_HAL_Driver/Src\stm32f4xx_hal_flash.c **** /**
 140:C:/Users/073be/STM32Cube/Repository/STM32Cube_FW_F4_V1.23.0/Drivers/STM32F4xx_HAL_Driver/Src\stm32f4xx_hal_flash.c ****   * @}
 141:C:/Users/073be/STM32Cube/Repository/STM32Cube_FW_F4_V1.23.0/Drivers/STM32F4xx_HAL_Driver/Src\stm32f4xx_hal_flash.c ****   */
 142:C:/Users/073be/STM32Cube/Repository/STM32Cube_FW_F4_V1.23.0/Drivers/STM32F4xx_HAL_Driver/Src\stm32f4xx_hal_flash.c **** 
 143:C:/Users/073be/STM32Cube/Repository/STM32Cube_FW_F4_V1.23.0/Drivers/STM32F4xx_HAL_Driver/Src\stm32f4xx_hal_flash.c **** /* Exported functions --------------------------------------------------------*/
 144:C:/Users/073be/STM32Cube/Repository/STM32Cube_FW_F4_V1.23.0/Drivers/STM32F4xx_HAL_Driver/Src\stm32f4xx_hal_flash.c **** /** @defgroup FLASH_Exported_Functions FLASH Exported Functions
 145:C:/Users/073be/STM32Cube/Repository/STM32Cube_FW_F4_V1.23.0/Drivers/STM32F4xx_HAL_Driver/Src\stm32f4xx_hal_flash.c ****   * @{
 146:C:/Users/073be/STM32Cube/Repository/STM32Cube_FW_F4_V1.23.0/Drivers/STM32F4xx_HAL_Driver/Src\stm32f4xx_hal_flash.c ****   */
ARM GAS  C:\Users\073be\AppData\Local\Temp\cceGulUG.s 			page 4


 147:C:/Users/073be/STM32Cube/Repository/STM32Cube_FW_F4_V1.23.0/Drivers/STM32F4xx_HAL_Driver/Src\stm32f4xx_hal_flash.c ****   
 148:C:/Users/073be/STM32Cube/Repository/STM32Cube_FW_F4_V1.23.0/Drivers/STM32F4xx_HAL_Driver/Src\stm32f4xx_hal_flash.c **** /** @defgroup FLASH_Exported_Functions_Group1 Programming operation functions 
 149:C:/Users/073be/STM32Cube/Repository/STM32Cube_FW_F4_V1.23.0/Drivers/STM32F4xx_HAL_Driver/Src\stm32f4xx_hal_flash.c ****  *  @brief   Programming operation functions 
 150:C:/Users/073be/STM32Cube/Repository/STM32Cube_FW_F4_V1.23.0/Drivers/STM32F4xx_HAL_Driver/Src\stm32f4xx_hal_flash.c ****  *
 151:C:/Users/073be/STM32Cube/Repository/STM32Cube_FW_F4_V1.23.0/Drivers/STM32F4xx_HAL_Driver/Src\stm32f4xx_hal_flash.c **** @verbatim   
 152:C:/Users/073be/STM32Cube/Repository/STM32Cube_FW_F4_V1.23.0/Drivers/STM32F4xx_HAL_Driver/Src\stm32f4xx_hal_flash.c ****  ===============================================================================
 153:C:/Users/073be/STM32Cube/Repository/STM32Cube_FW_F4_V1.23.0/Drivers/STM32F4xx_HAL_Driver/Src\stm32f4xx_hal_flash.c ****                   ##### Programming operation functions #####
 154:C:/Users/073be/STM32Cube/Repository/STM32Cube_FW_F4_V1.23.0/Drivers/STM32F4xx_HAL_Driver/Src\stm32f4xx_hal_flash.c ****  ===============================================================================  
 155:C:/Users/073be/STM32Cube/Repository/STM32Cube_FW_F4_V1.23.0/Drivers/STM32F4xx_HAL_Driver/Src\stm32f4xx_hal_flash.c ****     [..]
 156:C:/Users/073be/STM32Cube/Repository/STM32Cube_FW_F4_V1.23.0/Drivers/STM32F4xx_HAL_Driver/Src\stm32f4xx_hal_flash.c ****     This subsection provides a set of functions allowing to manage the FLASH 
 157:C:/Users/073be/STM32Cube/Repository/STM32Cube_FW_F4_V1.23.0/Drivers/STM32F4xx_HAL_Driver/Src\stm32f4xx_hal_flash.c ****     program operations.
 158:C:/Users/073be/STM32Cube/Repository/STM32Cube_FW_F4_V1.23.0/Drivers/STM32F4xx_HAL_Driver/Src\stm32f4xx_hal_flash.c **** 
 159:C:/Users/073be/STM32Cube/Repository/STM32Cube_FW_F4_V1.23.0/Drivers/STM32F4xx_HAL_Driver/Src\stm32f4xx_hal_flash.c **** @endverbatim
 160:C:/Users/073be/STM32Cube/Repository/STM32Cube_FW_F4_V1.23.0/Drivers/STM32F4xx_HAL_Driver/Src\stm32f4xx_hal_flash.c ****   * @{
 161:C:/Users/073be/STM32Cube/Repository/STM32Cube_FW_F4_V1.23.0/Drivers/STM32F4xx_HAL_Driver/Src\stm32f4xx_hal_flash.c ****   */
 162:C:/Users/073be/STM32Cube/Repository/STM32Cube_FW_F4_V1.23.0/Drivers/STM32F4xx_HAL_Driver/Src\stm32f4xx_hal_flash.c **** 
 163:C:/Users/073be/STM32Cube/Repository/STM32Cube_FW_F4_V1.23.0/Drivers/STM32F4xx_HAL_Driver/Src\stm32f4xx_hal_flash.c **** /**
 164:C:/Users/073be/STM32Cube/Repository/STM32Cube_FW_F4_V1.23.0/Drivers/STM32F4xx_HAL_Driver/Src\stm32f4xx_hal_flash.c ****   * @brief  Program byte, halfword, word or double word at a specified address
 165:C:/Users/073be/STM32Cube/Repository/STM32Cube_FW_F4_V1.23.0/Drivers/STM32F4xx_HAL_Driver/Src\stm32f4xx_hal_flash.c ****   * @param  TypeProgram  Indicate the way to program at a specified address.
 166:C:/Users/073be/STM32Cube/Repository/STM32Cube_FW_F4_V1.23.0/Drivers/STM32F4xx_HAL_Driver/Src\stm32f4xx_hal_flash.c ****   *                           This parameter can be a value of @ref FLASH_Type_Program
 167:C:/Users/073be/STM32Cube/Repository/STM32Cube_FW_F4_V1.23.0/Drivers/STM32F4xx_HAL_Driver/Src\stm32f4xx_hal_flash.c ****   * @param  Address  specifies the address to be programmed.
 168:C:/Users/073be/STM32Cube/Repository/STM32Cube_FW_F4_V1.23.0/Drivers/STM32F4xx_HAL_Driver/Src\stm32f4xx_hal_flash.c ****   * @param  Data specifies the data to be programmed
 169:C:/Users/073be/STM32Cube/Repository/STM32Cube_FW_F4_V1.23.0/Drivers/STM32F4xx_HAL_Driver/Src\stm32f4xx_hal_flash.c ****   * 
 170:C:/Users/073be/STM32Cube/Repository/STM32Cube_FW_F4_V1.23.0/Drivers/STM32F4xx_HAL_Driver/Src\stm32f4xx_hal_flash.c ****   * @retval HAL_StatusTypeDef HAL Status
 171:C:/Users/073be/STM32Cube/Repository/STM32Cube_FW_F4_V1.23.0/Drivers/STM32F4xx_HAL_Driver/Src\stm32f4xx_hal_flash.c ****   */
 172:C:/Users/073be/STM32Cube/Repository/STM32Cube_FW_F4_V1.23.0/Drivers/STM32F4xx_HAL_Driver/Src\stm32f4xx_hal_flash.c **** HAL_StatusTypeDef HAL_FLASH_Program(uint32_t TypeProgram, uint32_t Address, uint64_t Data)
 173:C:/Users/073be/STM32Cube/Repository/STM32Cube_FW_F4_V1.23.0/Drivers/STM32F4xx_HAL_Driver/Src\stm32f4xx_hal_flash.c **** {
 174:C:/Users/073be/STM32Cube/Repository/STM32Cube_FW_F4_V1.23.0/Drivers/STM32F4xx_HAL_Driver/Src\stm32f4xx_hal_flash.c ****   HAL_StatusTypeDef status = HAL_ERROR;
 175:C:/Users/073be/STM32Cube/Repository/STM32Cube_FW_F4_V1.23.0/Drivers/STM32F4xx_HAL_Driver/Src\stm32f4xx_hal_flash.c ****   
 176:C:/Users/073be/STM32Cube/Repository/STM32Cube_FW_F4_V1.23.0/Drivers/STM32F4xx_HAL_Driver/Src\stm32f4xx_hal_flash.c ****   /* Process Locked */
 177:C:/Users/073be/STM32Cube/Repository/STM32Cube_FW_F4_V1.23.0/Drivers/STM32F4xx_HAL_Driver/Src\stm32f4xx_hal_flash.c ****   __HAL_LOCK(&pFlash);
 178:C:/Users/073be/STM32Cube/Repository/STM32Cube_FW_F4_V1.23.0/Drivers/STM32F4xx_HAL_Driver/Src\stm32f4xx_hal_flash.c ****   
 179:C:/Users/073be/STM32Cube/Repository/STM32Cube_FW_F4_V1.23.0/Drivers/STM32F4xx_HAL_Driver/Src\stm32f4xx_hal_flash.c ****   /* Check the parameters */
 180:C:/Users/073be/STM32Cube/Repository/STM32Cube_FW_F4_V1.23.0/Drivers/STM32F4xx_HAL_Driver/Src\stm32f4xx_hal_flash.c ****   assert_param(IS_FLASH_TYPEPROGRAM(TypeProgram));
 181:C:/Users/073be/STM32Cube/Repository/STM32Cube_FW_F4_V1.23.0/Drivers/STM32F4xx_HAL_Driver/Src\stm32f4xx_hal_flash.c ****   
 182:C:/Users/073be/STM32Cube/Repository/STM32Cube_FW_F4_V1.23.0/Drivers/STM32F4xx_HAL_Driver/Src\stm32f4xx_hal_flash.c ****   /* Wait for last operation to be completed */
 183:C:/Users/073be/STM32Cube/Repository/STM32Cube_FW_F4_V1.23.0/Drivers/STM32F4xx_HAL_Driver/Src\stm32f4xx_hal_flash.c ****   status = FLASH_WaitForLastOperation((uint32_t)FLASH_TIMEOUT_VALUE);
 184:C:/Users/073be/STM32Cube/Repository/STM32Cube_FW_F4_V1.23.0/Drivers/STM32F4xx_HAL_Driver/Src\stm32f4xx_hal_flash.c ****   
 185:C:/Users/073be/STM32Cube/Repository/STM32Cube_FW_F4_V1.23.0/Drivers/STM32F4xx_HAL_Driver/Src\stm32f4xx_hal_flash.c ****   if(status == HAL_OK)
 186:C:/Users/073be/STM32Cube/Repository/STM32Cube_FW_F4_V1.23.0/Drivers/STM32F4xx_HAL_Driver/Src\stm32f4xx_hal_flash.c ****   {
 187:C:/Users/073be/STM32Cube/Repository/STM32Cube_FW_F4_V1.23.0/Drivers/STM32F4xx_HAL_Driver/Src\stm32f4xx_hal_flash.c ****     if(TypeProgram == FLASH_TYPEPROGRAM_BYTE)
 188:C:/Users/073be/STM32Cube/Repository/STM32Cube_FW_F4_V1.23.0/Drivers/STM32F4xx_HAL_Driver/Src\stm32f4xx_hal_flash.c ****     {
 189:C:/Users/073be/STM32Cube/Repository/STM32Cube_FW_F4_V1.23.0/Drivers/STM32F4xx_HAL_Driver/Src\stm32f4xx_hal_flash.c ****       /*Program byte (8-bit) at a specified address.*/
 190:C:/Users/073be/STM32Cube/Repository/STM32Cube_FW_F4_V1.23.0/Drivers/STM32F4xx_HAL_Driver/Src\stm32f4xx_hal_flash.c ****       FLASH_Program_Byte(Address, (uint8_t) Data);
 191:C:/Users/073be/STM32Cube/Repository/STM32Cube_FW_F4_V1.23.0/Drivers/STM32F4xx_HAL_Driver/Src\stm32f4xx_hal_flash.c ****     }
 192:C:/Users/073be/STM32Cube/Repository/STM32Cube_FW_F4_V1.23.0/Drivers/STM32F4xx_HAL_Driver/Src\stm32f4xx_hal_flash.c ****     else if(TypeProgram == FLASH_TYPEPROGRAM_HALFWORD)
 193:C:/Users/073be/STM32Cube/Repository/STM32Cube_FW_F4_V1.23.0/Drivers/STM32F4xx_HAL_Driver/Src\stm32f4xx_hal_flash.c ****     {
 194:C:/Users/073be/STM32Cube/Repository/STM32Cube_FW_F4_V1.23.0/Drivers/STM32F4xx_HAL_Driver/Src\stm32f4xx_hal_flash.c ****       /*Program halfword (16-bit) at a specified address.*/
 195:C:/Users/073be/STM32Cube/Repository/STM32Cube_FW_F4_V1.23.0/Drivers/STM32F4xx_HAL_Driver/Src\stm32f4xx_hal_flash.c ****       FLASH_Program_HalfWord(Address, (uint16_t) Data);
 196:C:/Users/073be/STM32Cube/Repository/STM32Cube_FW_F4_V1.23.0/Drivers/STM32F4xx_HAL_Driver/Src\stm32f4xx_hal_flash.c ****     }
 197:C:/Users/073be/STM32Cube/Repository/STM32Cube_FW_F4_V1.23.0/Drivers/STM32F4xx_HAL_Driver/Src\stm32f4xx_hal_flash.c ****     else if(TypeProgram == FLASH_TYPEPROGRAM_WORD)
 198:C:/Users/073be/STM32Cube/Repository/STM32Cube_FW_F4_V1.23.0/Drivers/STM32F4xx_HAL_Driver/Src\stm32f4xx_hal_flash.c ****     {
 199:C:/Users/073be/STM32Cube/Repository/STM32Cube_FW_F4_V1.23.0/Drivers/STM32F4xx_HAL_Driver/Src\stm32f4xx_hal_flash.c ****       /*Program word (32-bit) at a specified address.*/
 200:C:/Users/073be/STM32Cube/Repository/STM32Cube_FW_F4_V1.23.0/Drivers/STM32F4xx_HAL_Driver/Src\stm32f4xx_hal_flash.c ****       FLASH_Program_Word(Address, (uint32_t) Data);
 201:C:/Users/073be/STM32Cube/Repository/STM32Cube_FW_F4_V1.23.0/Drivers/STM32F4xx_HAL_Driver/Src\stm32f4xx_hal_flash.c ****     }
 202:C:/Users/073be/STM32Cube/Repository/STM32Cube_FW_F4_V1.23.0/Drivers/STM32F4xx_HAL_Driver/Src\stm32f4xx_hal_flash.c ****     else
 203:C:/Users/073be/STM32Cube/Repository/STM32Cube_FW_F4_V1.23.0/Drivers/STM32F4xx_HAL_Driver/Src\stm32f4xx_hal_flash.c ****     {
ARM GAS  C:\Users\073be\AppData\Local\Temp\cceGulUG.s 			page 5


 204:C:/Users/073be/STM32Cube/Repository/STM32Cube_FW_F4_V1.23.0/Drivers/STM32F4xx_HAL_Driver/Src\stm32f4xx_hal_flash.c ****       /*Program double word (64-bit) at a specified address.*/
 205:C:/Users/073be/STM32Cube/Repository/STM32Cube_FW_F4_V1.23.0/Drivers/STM32F4xx_HAL_Driver/Src\stm32f4xx_hal_flash.c ****       FLASH_Program_DoubleWord(Address, Data);
 206:C:/Users/073be/STM32Cube/Repository/STM32Cube_FW_F4_V1.23.0/Drivers/STM32F4xx_HAL_Driver/Src\stm32f4xx_hal_flash.c ****     }
 207:C:/Users/073be/STM32Cube/Repository/STM32Cube_FW_F4_V1.23.0/Drivers/STM32F4xx_HAL_Driver/Src\stm32f4xx_hal_flash.c ****     
 208:C:/Users/073be/STM32Cube/Repository/STM32Cube_FW_F4_V1.23.0/Drivers/STM32F4xx_HAL_Driver/Src\stm32f4xx_hal_flash.c ****     /* Wait for last operation to be completed */
 209:C:/Users/073be/STM32Cube/Repository/STM32Cube_FW_F4_V1.23.0/Drivers/STM32F4xx_HAL_Driver/Src\stm32f4xx_hal_flash.c ****     status = FLASH_WaitForLastOperation((uint32_t)FLASH_TIMEOUT_VALUE);
 210:C:/Users/073be/STM32Cube/Repository/STM32Cube_FW_F4_V1.23.0/Drivers/STM32F4xx_HAL_Driver/Src\stm32f4xx_hal_flash.c ****     
 211:C:/Users/073be/STM32Cube/Repository/STM32Cube_FW_F4_V1.23.0/Drivers/STM32F4xx_HAL_Driver/Src\stm32f4xx_hal_flash.c ****     /* If the program operation is completed, disable the PG Bit */
 212:C:/Users/073be/STM32Cube/Repository/STM32Cube_FW_F4_V1.23.0/Drivers/STM32F4xx_HAL_Driver/Src\stm32f4xx_hal_flash.c ****     FLASH->CR &= (~FLASH_CR_PG);  
 213:C:/Users/073be/STM32Cube/Repository/STM32Cube_FW_F4_V1.23.0/Drivers/STM32F4xx_HAL_Driver/Src\stm32f4xx_hal_flash.c ****   }
 214:C:/Users/073be/STM32Cube/Repository/STM32Cube_FW_F4_V1.23.0/Drivers/STM32F4xx_HAL_Driver/Src\stm32f4xx_hal_flash.c ****   
 215:C:/Users/073be/STM32Cube/Repository/STM32Cube_FW_F4_V1.23.0/Drivers/STM32F4xx_HAL_Driver/Src\stm32f4xx_hal_flash.c ****   /* Process Unlocked */
 216:C:/Users/073be/STM32Cube/Repository/STM32Cube_FW_F4_V1.23.0/Drivers/STM32F4xx_HAL_Driver/Src\stm32f4xx_hal_flash.c ****   __HAL_UNLOCK(&pFlash);
 217:C:/Users/073be/STM32Cube/Repository/STM32Cube_FW_F4_V1.23.0/Drivers/STM32F4xx_HAL_Driver/Src\stm32f4xx_hal_flash.c ****   
 218:C:/Users/073be/STM32Cube/Repository/STM32Cube_FW_F4_V1.23.0/Drivers/STM32F4xx_HAL_Driver/Src\stm32f4xx_hal_flash.c ****   return status;
 219:C:/Users/073be/STM32Cube/Repository/STM32Cube_FW_F4_V1.23.0/Drivers/STM32F4xx_HAL_Driver/Src\stm32f4xx_hal_flash.c **** }
 220:C:/Users/073be/STM32Cube/Repository/STM32Cube_FW_F4_V1.23.0/Drivers/STM32F4xx_HAL_Driver/Src\stm32f4xx_hal_flash.c **** 
 221:C:/Users/073be/STM32Cube/Repository/STM32Cube_FW_F4_V1.23.0/Drivers/STM32F4xx_HAL_Driver/Src\stm32f4xx_hal_flash.c **** /**
 222:C:/Users/073be/STM32Cube/Repository/STM32Cube_FW_F4_V1.23.0/Drivers/STM32F4xx_HAL_Driver/Src\stm32f4xx_hal_flash.c ****   * @brief   Program byte, halfword, word or double word at a specified address  with interrupt ena
 223:C:/Users/073be/STM32Cube/Repository/STM32Cube_FW_F4_V1.23.0/Drivers/STM32F4xx_HAL_Driver/Src\stm32f4xx_hal_flash.c ****   * @param  TypeProgram  Indicate the way to program at a specified address.
 224:C:/Users/073be/STM32Cube/Repository/STM32Cube_FW_F4_V1.23.0/Drivers/STM32F4xx_HAL_Driver/Src\stm32f4xx_hal_flash.c ****   *                           This parameter can be a value of @ref FLASH_Type_Program
 225:C:/Users/073be/STM32Cube/Repository/STM32Cube_FW_F4_V1.23.0/Drivers/STM32F4xx_HAL_Driver/Src\stm32f4xx_hal_flash.c ****   * @param  Address  specifies the address to be programmed.
 226:C:/Users/073be/STM32Cube/Repository/STM32Cube_FW_F4_V1.23.0/Drivers/STM32F4xx_HAL_Driver/Src\stm32f4xx_hal_flash.c ****   * @param  Data specifies the data to be programmed
 227:C:/Users/073be/STM32Cube/Repository/STM32Cube_FW_F4_V1.23.0/Drivers/STM32F4xx_HAL_Driver/Src\stm32f4xx_hal_flash.c ****   * 
 228:C:/Users/073be/STM32Cube/Repository/STM32Cube_FW_F4_V1.23.0/Drivers/STM32F4xx_HAL_Driver/Src\stm32f4xx_hal_flash.c ****   * @retval HAL Status
 229:C:/Users/073be/STM32Cube/Repository/STM32Cube_FW_F4_V1.23.0/Drivers/STM32F4xx_HAL_Driver/Src\stm32f4xx_hal_flash.c ****   */
 230:C:/Users/073be/STM32Cube/Repository/STM32Cube_FW_F4_V1.23.0/Drivers/STM32F4xx_HAL_Driver/Src\stm32f4xx_hal_flash.c **** HAL_StatusTypeDef HAL_FLASH_Program_IT(uint32_t TypeProgram, uint32_t Address, uint64_t Data)
 231:C:/Users/073be/STM32Cube/Repository/STM32Cube_FW_F4_V1.23.0/Drivers/STM32F4xx_HAL_Driver/Src\stm32f4xx_hal_flash.c **** {
 232:C:/Users/073be/STM32Cube/Repository/STM32Cube_FW_F4_V1.23.0/Drivers/STM32F4xx_HAL_Driver/Src\stm32f4xx_hal_flash.c ****   HAL_StatusTypeDef status = HAL_OK;
 233:C:/Users/073be/STM32Cube/Repository/STM32Cube_FW_F4_V1.23.0/Drivers/STM32F4xx_HAL_Driver/Src\stm32f4xx_hal_flash.c ****   
 234:C:/Users/073be/STM32Cube/Repository/STM32Cube_FW_F4_V1.23.0/Drivers/STM32F4xx_HAL_Driver/Src\stm32f4xx_hal_flash.c ****   /* Process Locked */
 235:C:/Users/073be/STM32Cube/Repository/STM32Cube_FW_F4_V1.23.0/Drivers/STM32F4xx_HAL_Driver/Src\stm32f4xx_hal_flash.c ****   __HAL_LOCK(&pFlash);
 236:C:/Users/073be/STM32Cube/Repository/STM32Cube_FW_F4_V1.23.0/Drivers/STM32F4xx_HAL_Driver/Src\stm32f4xx_hal_flash.c **** 
 237:C:/Users/073be/STM32Cube/Repository/STM32Cube_FW_F4_V1.23.0/Drivers/STM32F4xx_HAL_Driver/Src\stm32f4xx_hal_flash.c ****   /* Check the parameters */
 238:C:/Users/073be/STM32Cube/Repository/STM32Cube_FW_F4_V1.23.0/Drivers/STM32F4xx_HAL_Driver/Src\stm32f4xx_hal_flash.c ****   assert_param(IS_FLASH_TYPEPROGRAM(TypeProgram));
 239:C:/Users/073be/STM32Cube/Repository/STM32Cube_FW_F4_V1.23.0/Drivers/STM32F4xx_HAL_Driver/Src\stm32f4xx_hal_flash.c **** 
 240:C:/Users/073be/STM32Cube/Repository/STM32Cube_FW_F4_V1.23.0/Drivers/STM32F4xx_HAL_Driver/Src\stm32f4xx_hal_flash.c ****   /* Enable End of FLASH Operation interrupt */
 241:C:/Users/073be/STM32Cube/Repository/STM32Cube_FW_F4_V1.23.0/Drivers/STM32F4xx_HAL_Driver/Src\stm32f4xx_hal_flash.c ****   __HAL_FLASH_ENABLE_IT(FLASH_IT_EOP);
 242:C:/Users/073be/STM32Cube/Repository/STM32Cube_FW_F4_V1.23.0/Drivers/STM32F4xx_HAL_Driver/Src\stm32f4xx_hal_flash.c ****   
 243:C:/Users/073be/STM32Cube/Repository/STM32Cube_FW_F4_V1.23.0/Drivers/STM32F4xx_HAL_Driver/Src\stm32f4xx_hal_flash.c ****   /* Enable Error source interrupt */
 244:C:/Users/073be/STM32Cube/Repository/STM32Cube_FW_F4_V1.23.0/Drivers/STM32F4xx_HAL_Driver/Src\stm32f4xx_hal_flash.c ****   __HAL_FLASH_ENABLE_IT(FLASH_IT_ERR);
 245:C:/Users/073be/STM32Cube/Repository/STM32Cube_FW_F4_V1.23.0/Drivers/STM32F4xx_HAL_Driver/Src\stm32f4xx_hal_flash.c **** 
 246:C:/Users/073be/STM32Cube/Repository/STM32Cube_FW_F4_V1.23.0/Drivers/STM32F4xx_HAL_Driver/Src\stm32f4xx_hal_flash.c ****   pFlash.ProcedureOnGoing = FLASH_PROC_PROGRAM;
 247:C:/Users/073be/STM32Cube/Repository/STM32Cube_FW_F4_V1.23.0/Drivers/STM32F4xx_HAL_Driver/Src\stm32f4xx_hal_flash.c ****   pFlash.Address = Address;
 248:C:/Users/073be/STM32Cube/Repository/STM32Cube_FW_F4_V1.23.0/Drivers/STM32F4xx_HAL_Driver/Src\stm32f4xx_hal_flash.c **** 
 249:C:/Users/073be/STM32Cube/Repository/STM32Cube_FW_F4_V1.23.0/Drivers/STM32F4xx_HAL_Driver/Src\stm32f4xx_hal_flash.c ****   if(TypeProgram == FLASH_TYPEPROGRAM_BYTE)
 250:C:/Users/073be/STM32Cube/Repository/STM32Cube_FW_F4_V1.23.0/Drivers/STM32F4xx_HAL_Driver/Src\stm32f4xx_hal_flash.c ****   {
 251:C:/Users/073be/STM32Cube/Repository/STM32Cube_FW_F4_V1.23.0/Drivers/STM32F4xx_HAL_Driver/Src\stm32f4xx_hal_flash.c ****     /*Program byte (8-bit) at a specified address.*/
 252:C:/Users/073be/STM32Cube/Repository/STM32Cube_FW_F4_V1.23.0/Drivers/STM32F4xx_HAL_Driver/Src\stm32f4xx_hal_flash.c ****       FLASH_Program_Byte(Address, (uint8_t) Data);
 253:C:/Users/073be/STM32Cube/Repository/STM32Cube_FW_F4_V1.23.0/Drivers/STM32F4xx_HAL_Driver/Src\stm32f4xx_hal_flash.c ****   }
 254:C:/Users/073be/STM32Cube/Repository/STM32Cube_FW_F4_V1.23.0/Drivers/STM32F4xx_HAL_Driver/Src\stm32f4xx_hal_flash.c ****   else if(TypeProgram == FLASH_TYPEPROGRAM_HALFWORD)
 255:C:/Users/073be/STM32Cube/Repository/STM32Cube_FW_F4_V1.23.0/Drivers/STM32F4xx_HAL_Driver/Src\stm32f4xx_hal_flash.c ****   {
 256:C:/Users/073be/STM32Cube/Repository/STM32Cube_FW_F4_V1.23.0/Drivers/STM32F4xx_HAL_Driver/Src\stm32f4xx_hal_flash.c ****     /*Program halfword (16-bit) at a specified address.*/
 257:C:/Users/073be/STM32Cube/Repository/STM32Cube_FW_F4_V1.23.0/Drivers/STM32F4xx_HAL_Driver/Src\stm32f4xx_hal_flash.c ****     FLASH_Program_HalfWord(Address, (uint16_t) Data);
 258:C:/Users/073be/STM32Cube/Repository/STM32Cube_FW_F4_V1.23.0/Drivers/STM32F4xx_HAL_Driver/Src\stm32f4xx_hal_flash.c ****   }
 259:C:/Users/073be/STM32Cube/Repository/STM32Cube_FW_F4_V1.23.0/Drivers/STM32F4xx_HAL_Driver/Src\stm32f4xx_hal_flash.c ****   else if(TypeProgram == FLASH_TYPEPROGRAM_WORD)
 260:C:/Users/073be/STM32Cube/Repository/STM32Cube_FW_F4_V1.23.0/Drivers/STM32F4xx_HAL_Driver/Src\stm32f4xx_hal_flash.c ****   {
ARM GAS  C:\Users\073be\AppData\Local\Temp\cceGulUG.s 			page 6


 261:C:/Users/073be/STM32Cube/Repository/STM32Cube_FW_F4_V1.23.0/Drivers/STM32F4xx_HAL_Driver/Src\stm32f4xx_hal_flash.c ****     /*Program word (32-bit) at a specified address.*/
 262:C:/Users/073be/STM32Cube/Repository/STM32Cube_FW_F4_V1.23.0/Drivers/STM32F4xx_HAL_Driver/Src\stm32f4xx_hal_flash.c ****     FLASH_Program_Word(Address, (uint32_t) Data);
 263:C:/Users/073be/STM32Cube/Repository/STM32Cube_FW_F4_V1.23.0/Drivers/STM32F4xx_HAL_Driver/Src\stm32f4xx_hal_flash.c ****   }
 264:C:/Users/073be/STM32Cube/Repository/STM32Cube_FW_F4_V1.23.0/Drivers/STM32F4xx_HAL_Driver/Src\stm32f4xx_hal_flash.c ****   else
 265:C:/Users/073be/STM32Cube/Repository/STM32Cube_FW_F4_V1.23.0/Drivers/STM32F4xx_HAL_Driver/Src\stm32f4xx_hal_flash.c ****   {
 266:C:/Users/073be/STM32Cube/Repository/STM32Cube_FW_F4_V1.23.0/Drivers/STM32F4xx_HAL_Driver/Src\stm32f4xx_hal_flash.c ****     /*Program double word (64-bit) at a specified address.*/
 267:C:/Users/073be/STM32Cube/Repository/STM32Cube_FW_F4_V1.23.0/Drivers/STM32F4xx_HAL_Driver/Src\stm32f4xx_hal_flash.c ****     FLASH_Program_DoubleWord(Address, Data);
 268:C:/Users/073be/STM32Cube/Repository/STM32Cube_FW_F4_V1.23.0/Drivers/STM32F4xx_HAL_Driver/Src\stm32f4xx_hal_flash.c ****   }
 269:C:/Users/073be/STM32Cube/Repository/STM32Cube_FW_F4_V1.23.0/Drivers/STM32F4xx_HAL_Driver/Src\stm32f4xx_hal_flash.c **** 
 270:C:/Users/073be/STM32Cube/Repository/STM32Cube_FW_F4_V1.23.0/Drivers/STM32F4xx_HAL_Driver/Src\stm32f4xx_hal_flash.c ****   return status;
 271:C:/Users/073be/STM32Cube/Repository/STM32Cube_FW_F4_V1.23.0/Drivers/STM32F4xx_HAL_Driver/Src\stm32f4xx_hal_flash.c **** }
 272:C:/Users/073be/STM32Cube/Repository/STM32Cube_FW_F4_V1.23.0/Drivers/STM32F4xx_HAL_Driver/Src\stm32f4xx_hal_flash.c **** 
 273:C:/Users/073be/STM32Cube/Repository/STM32Cube_FW_F4_V1.23.0/Drivers/STM32F4xx_HAL_Driver/Src\stm32f4xx_hal_flash.c **** /**
 274:C:/Users/073be/STM32Cube/Repository/STM32Cube_FW_F4_V1.23.0/Drivers/STM32F4xx_HAL_Driver/Src\stm32f4xx_hal_flash.c ****   * @brief This function handles FLASH interrupt request.
 275:C:/Users/073be/STM32Cube/Repository/STM32Cube_FW_F4_V1.23.0/Drivers/STM32F4xx_HAL_Driver/Src\stm32f4xx_hal_flash.c ****   * @retval None
 276:C:/Users/073be/STM32Cube/Repository/STM32Cube_FW_F4_V1.23.0/Drivers/STM32F4xx_HAL_Driver/Src\stm32f4xx_hal_flash.c ****   */
 277:C:/Users/073be/STM32Cube/Repository/STM32Cube_FW_F4_V1.23.0/Drivers/STM32F4xx_HAL_Driver/Src\stm32f4xx_hal_flash.c **** void HAL_FLASH_IRQHandler(void)
 278:C:/Users/073be/STM32Cube/Repository/STM32Cube_FW_F4_V1.23.0/Drivers/STM32F4xx_HAL_Driver/Src\stm32f4xx_hal_flash.c **** {
 279:C:/Users/073be/STM32Cube/Repository/STM32Cube_FW_F4_V1.23.0/Drivers/STM32F4xx_HAL_Driver/Src\stm32f4xx_hal_flash.c ****   uint32_t addresstmp = 0U;
 280:C:/Users/073be/STM32Cube/Repository/STM32Cube_FW_F4_V1.23.0/Drivers/STM32F4xx_HAL_Driver/Src\stm32f4xx_hal_flash.c ****   
 281:C:/Users/073be/STM32Cube/Repository/STM32Cube_FW_F4_V1.23.0/Drivers/STM32F4xx_HAL_Driver/Src\stm32f4xx_hal_flash.c ****   /* Check FLASH operation error flags */
 282:C:/Users/073be/STM32Cube/Repository/STM32Cube_FW_F4_V1.23.0/Drivers/STM32F4xx_HAL_Driver/Src\stm32f4xx_hal_flash.c **** #if defined(FLASH_SR_RDERR) 
 283:C:/Users/073be/STM32Cube/Repository/STM32Cube_FW_F4_V1.23.0/Drivers/STM32F4xx_HAL_Driver/Src\stm32f4xx_hal_flash.c ****   if(__HAL_FLASH_GET_FLAG((FLASH_FLAG_OPERR | FLASH_FLAG_WRPERR | FLASH_FLAG_PGAERR | \
 284:C:/Users/073be/STM32Cube/Repository/STM32Cube_FW_F4_V1.23.0/Drivers/STM32F4xx_HAL_Driver/Src\stm32f4xx_hal_flash.c ****     FLASH_FLAG_PGPERR | FLASH_FLAG_PGSERR | FLASH_FLAG_RDERR)) != RESET)
 285:C:/Users/073be/STM32Cube/Repository/STM32Cube_FW_F4_V1.23.0/Drivers/STM32F4xx_HAL_Driver/Src\stm32f4xx_hal_flash.c **** #else
 286:C:/Users/073be/STM32Cube/Repository/STM32Cube_FW_F4_V1.23.0/Drivers/STM32F4xx_HAL_Driver/Src\stm32f4xx_hal_flash.c ****   if(__HAL_FLASH_GET_FLAG((FLASH_FLAG_OPERR | FLASH_FLAG_WRPERR | FLASH_FLAG_PGAERR | \
 287:C:/Users/073be/STM32Cube/Repository/STM32Cube_FW_F4_V1.23.0/Drivers/STM32F4xx_HAL_Driver/Src\stm32f4xx_hal_flash.c ****     FLASH_FLAG_PGPERR | FLASH_FLAG_PGSERR)) != RESET)
 288:C:/Users/073be/STM32Cube/Repository/STM32Cube_FW_F4_V1.23.0/Drivers/STM32F4xx_HAL_Driver/Src\stm32f4xx_hal_flash.c **** #endif /* FLASH_SR_RDERR */
 289:C:/Users/073be/STM32Cube/Repository/STM32Cube_FW_F4_V1.23.0/Drivers/STM32F4xx_HAL_Driver/Src\stm32f4xx_hal_flash.c ****   {
 290:C:/Users/073be/STM32Cube/Repository/STM32Cube_FW_F4_V1.23.0/Drivers/STM32F4xx_HAL_Driver/Src\stm32f4xx_hal_flash.c ****     if(pFlash.ProcedureOnGoing == FLASH_PROC_SECTERASE)
 291:C:/Users/073be/STM32Cube/Repository/STM32Cube_FW_F4_V1.23.0/Drivers/STM32F4xx_HAL_Driver/Src\stm32f4xx_hal_flash.c ****     {
 292:C:/Users/073be/STM32Cube/Repository/STM32Cube_FW_F4_V1.23.0/Drivers/STM32F4xx_HAL_Driver/Src\stm32f4xx_hal_flash.c ****       /*return the faulty sector*/
 293:C:/Users/073be/STM32Cube/Repository/STM32Cube_FW_F4_V1.23.0/Drivers/STM32F4xx_HAL_Driver/Src\stm32f4xx_hal_flash.c ****       addresstmp = pFlash.Sector;
 294:C:/Users/073be/STM32Cube/Repository/STM32Cube_FW_F4_V1.23.0/Drivers/STM32F4xx_HAL_Driver/Src\stm32f4xx_hal_flash.c ****       pFlash.Sector = 0xFFFFFFFFU;
 295:C:/Users/073be/STM32Cube/Repository/STM32Cube_FW_F4_V1.23.0/Drivers/STM32F4xx_HAL_Driver/Src\stm32f4xx_hal_flash.c ****     }
 296:C:/Users/073be/STM32Cube/Repository/STM32Cube_FW_F4_V1.23.0/Drivers/STM32F4xx_HAL_Driver/Src\stm32f4xx_hal_flash.c ****     else if(pFlash.ProcedureOnGoing == FLASH_PROC_MASSERASE)
 297:C:/Users/073be/STM32Cube/Repository/STM32Cube_FW_F4_V1.23.0/Drivers/STM32F4xx_HAL_Driver/Src\stm32f4xx_hal_flash.c ****     {
 298:C:/Users/073be/STM32Cube/Repository/STM32Cube_FW_F4_V1.23.0/Drivers/STM32F4xx_HAL_Driver/Src\stm32f4xx_hal_flash.c ****       /*return the faulty bank*/
 299:C:/Users/073be/STM32Cube/Repository/STM32Cube_FW_F4_V1.23.0/Drivers/STM32F4xx_HAL_Driver/Src\stm32f4xx_hal_flash.c ****       addresstmp = pFlash.Bank;
 300:C:/Users/073be/STM32Cube/Repository/STM32Cube_FW_F4_V1.23.0/Drivers/STM32F4xx_HAL_Driver/Src\stm32f4xx_hal_flash.c ****     }
 301:C:/Users/073be/STM32Cube/Repository/STM32Cube_FW_F4_V1.23.0/Drivers/STM32F4xx_HAL_Driver/Src\stm32f4xx_hal_flash.c ****     else
 302:C:/Users/073be/STM32Cube/Repository/STM32Cube_FW_F4_V1.23.0/Drivers/STM32F4xx_HAL_Driver/Src\stm32f4xx_hal_flash.c ****     {
 303:C:/Users/073be/STM32Cube/Repository/STM32Cube_FW_F4_V1.23.0/Drivers/STM32F4xx_HAL_Driver/Src\stm32f4xx_hal_flash.c ****       /*return the faulty address*/
 304:C:/Users/073be/STM32Cube/Repository/STM32Cube_FW_F4_V1.23.0/Drivers/STM32F4xx_HAL_Driver/Src\stm32f4xx_hal_flash.c ****       addresstmp = pFlash.Address;
 305:C:/Users/073be/STM32Cube/Repository/STM32Cube_FW_F4_V1.23.0/Drivers/STM32F4xx_HAL_Driver/Src\stm32f4xx_hal_flash.c ****     }
 306:C:/Users/073be/STM32Cube/Repository/STM32Cube_FW_F4_V1.23.0/Drivers/STM32F4xx_HAL_Driver/Src\stm32f4xx_hal_flash.c ****     
 307:C:/Users/073be/STM32Cube/Repository/STM32Cube_FW_F4_V1.23.0/Drivers/STM32F4xx_HAL_Driver/Src\stm32f4xx_hal_flash.c ****     /*Save the Error code*/
 308:C:/Users/073be/STM32Cube/Repository/STM32Cube_FW_F4_V1.23.0/Drivers/STM32F4xx_HAL_Driver/Src\stm32f4xx_hal_flash.c ****     FLASH_SetErrorCode();
 309:C:/Users/073be/STM32Cube/Repository/STM32Cube_FW_F4_V1.23.0/Drivers/STM32F4xx_HAL_Driver/Src\stm32f4xx_hal_flash.c ****     
 310:C:/Users/073be/STM32Cube/Repository/STM32Cube_FW_F4_V1.23.0/Drivers/STM32F4xx_HAL_Driver/Src\stm32f4xx_hal_flash.c ****     /* FLASH error interrupt user callback */
 311:C:/Users/073be/STM32Cube/Repository/STM32Cube_FW_F4_V1.23.0/Drivers/STM32F4xx_HAL_Driver/Src\stm32f4xx_hal_flash.c ****     HAL_FLASH_OperationErrorCallback(addresstmp);
 312:C:/Users/073be/STM32Cube/Repository/STM32Cube_FW_F4_V1.23.0/Drivers/STM32F4xx_HAL_Driver/Src\stm32f4xx_hal_flash.c ****     
 313:C:/Users/073be/STM32Cube/Repository/STM32Cube_FW_F4_V1.23.0/Drivers/STM32F4xx_HAL_Driver/Src\stm32f4xx_hal_flash.c ****     /*Stop the procedure ongoing*/
 314:C:/Users/073be/STM32Cube/Repository/STM32Cube_FW_F4_V1.23.0/Drivers/STM32F4xx_HAL_Driver/Src\stm32f4xx_hal_flash.c ****     pFlash.ProcedureOnGoing = FLASH_PROC_NONE;
 315:C:/Users/073be/STM32Cube/Repository/STM32Cube_FW_F4_V1.23.0/Drivers/STM32F4xx_HAL_Driver/Src\stm32f4xx_hal_flash.c ****   }
 316:C:/Users/073be/STM32Cube/Repository/STM32Cube_FW_F4_V1.23.0/Drivers/STM32F4xx_HAL_Driver/Src\stm32f4xx_hal_flash.c ****   
 317:C:/Users/073be/STM32Cube/Repository/STM32Cube_FW_F4_V1.23.0/Drivers/STM32F4xx_HAL_Driver/Src\stm32f4xx_hal_flash.c ****   /* Check FLASH End of Operation flag  */
ARM GAS  C:\Users\073be\AppData\Local\Temp\cceGulUG.s 			page 7


 318:C:/Users/073be/STM32Cube/Repository/STM32Cube_FW_F4_V1.23.0/Drivers/STM32F4xx_HAL_Driver/Src\stm32f4xx_hal_flash.c ****   if(__HAL_FLASH_GET_FLAG(FLASH_FLAG_EOP) != RESET)
 319:C:/Users/073be/STM32Cube/Repository/STM32Cube_FW_F4_V1.23.0/Drivers/STM32F4xx_HAL_Driver/Src\stm32f4xx_hal_flash.c ****   {
 320:C:/Users/073be/STM32Cube/Repository/STM32Cube_FW_F4_V1.23.0/Drivers/STM32F4xx_HAL_Driver/Src\stm32f4xx_hal_flash.c ****     /* Clear FLASH End of Operation pending bit */
 321:C:/Users/073be/STM32Cube/Repository/STM32Cube_FW_F4_V1.23.0/Drivers/STM32F4xx_HAL_Driver/Src\stm32f4xx_hal_flash.c ****     __HAL_FLASH_CLEAR_FLAG(FLASH_FLAG_EOP);
 322:C:/Users/073be/STM32Cube/Repository/STM32Cube_FW_F4_V1.23.0/Drivers/STM32F4xx_HAL_Driver/Src\stm32f4xx_hal_flash.c ****     
 323:C:/Users/073be/STM32Cube/Repository/STM32Cube_FW_F4_V1.23.0/Drivers/STM32F4xx_HAL_Driver/Src\stm32f4xx_hal_flash.c ****     if(pFlash.ProcedureOnGoing == FLASH_PROC_SECTERASE)
 324:C:/Users/073be/STM32Cube/Repository/STM32Cube_FW_F4_V1.23.0/Drivers/STM32F4xx_HAL_Driver/Src\stm32f4xx_hal_flash.c ****     {
 325:C:/Users/073be/STM32Cube/Repository/STM32Cube_FW_F4_V1.23.0/Drivers/STM32F4xx_HAL_Driver/Src\stm32f4xx_hal_flash.c ****       /*Nb of sector to erased can be decreased*/
 326:C:/Users/073be/STM32Cube/Repository/STM32Cube_FW_F4_V1.23.0/Drivers/STM32F4xx_HAL_Driver/Src\stm32f4xx_hal_flash.c ****       pFlash.NbSectorsToErase--;
 327:C:/Users/073be/STM32Cube/Repository/STM32Cube_FW_F4_V1.23.0/Drivers/STM32F4xx_HAL_Driver/Src\stm32f4xx_hal_flash.c ****       
 328:C:/Users/073be/STM32Cube/Repository/STM32Cube_FW_F4_V1.23.0/Drivers/STM32F4xx_HAL_Driver/Src\stm32f4xx_hal_flash.c ****       /* Check if there are still sectors to erase*/
 329:C:/Users/073be/STM32Cube/Repository/STM32Cube_FW_F4_V1.23.0/Drivers/STM32F4xx_HAL_Driver/Src\stm32f4xx_hal_flash.c ****       if(pFlash.NbSectorsToErase != 0U)
 330:C:/Users/073be/STM32Cube/Repository/STM32Cube_FW_F4_V1.23.0/Drivers/STM32F4xx_HAL_Driver/Src\stm32f4xx_hal_flash.c ****       {
 331:C:/Users/073be/STM32Cube/Repository/STM32Cube_FW_F4_V1.23.0/Drivers/STM32F4xx_HAL_Driver/Src\stm32f4xx_hal_flash.c ****         addresstmp = pFlash.Sector;
 332:C:/Users/073be/STM32Cube/Repository/STM32Cube_FW_F4_V1.23.0/Drivers/STM32F4xx_HAL_Driver/Src\stm32f4xx_hal_flash.c ****         /*Indicate user which sector has been erased*/
 333:C:/Users/073be/STM32Cube/Repository/STM32Cube_FW_F4_V1.23.0/Drivers/STM32F4xx_HAL_Driver/Src\stm32f4xx_hal_flash.c ****         HAL_FLASH_EndOfOperationCallback(addresstmp);
 334:C:/Users/073be/STM32Cube/Repository/STM32Cube_FW_F4_V1.23.0/Drivers/STM32F4xx_HAL_Driver/Src\stm32f4xx_hal_flash.c ****         
 335:C:/Users/073be/STM32Cube/Repository/STM32Cube_FW_F4_V1.23.0/Drivers/STM32F4xx_HAL_Driver/Src\stm32f4xx_hal_flash.c ****         /*Increment sector number*/
 336:C:/Users/073be/STM32Cube/Repository/STM32Cube_FW_F4_V1.23.0/Drivers/STM32F4xx_HAL_Driver/Src\stm32f4xx_hal_flash.c ****         pFlash.Sector++;
 337:C:/Users/073be/STM32Cube/Repository/STM32Cube_FW_F4_V1.23.0/Drivers/STM32F4xx_HAL_Driver/Src\stm32f4xx_hal_flash.c ****         addresstmp = pFlash.Sector;
 338:C:/Users/073be/STM32Cube/Repository/STM32Cube_FW_F4_V1.23.0/Drivers/STM32F4xx_HAL_Driver/Src\stm32f4xx_hal_flash.c ****         FLASH_Erase_Sector(addresstmp, pFlash.VoltageForErase);
 339:C:/Users/073be/STM32Cube/Repository/STM32Cube_FW_F4_V1.23.0/Drivers/STM32F4xx_HAL_Driver/Src\stm32f4xx_hal_flash.c ****       }
 340:C:/Users/073be/STM32Cube/Repository/STM32Cube_FW_F4_V1.23.0/Drivers/STM32F4xx_HAL_Driver/Src\stm32f4xx_hal_flash.c ****       else
 341:C:/Users/073be/STM32Cube/Repository/STM32Cube_FW_F4_V1.23.0/Drivers/STM32F4xx_HAL_Driver/Src\stm32f4xx_hal_flash.c ****       {
 342:C:/Users/073be/STM32Cube/Repository/STM32Cube_FW_F4_V1.23.0/Drivers/STM32F4xx_HAL_Driver/Src\stm32f4xx_hal_flash.c ****         /*No more sectors to Erase, user callback can be called.*/
 343:C:/Users/073be/STM32Cube/Repository/STM32Cube_FW_F4_V1.23.0/Drivers/STM32F4xx_HAL_Driver/Src\stm32f4xx_hal_flash.c ****         /*Reset Sector and stop Erase sectors procedure*/
 344:C:/Users/073be/STM32Cube/Repository/STM32Cube_FW_F4_V1.23.0/Drivers/STM32F4xx_HAL_Driver/Src\stm32f4xx_hal_flash.c ****         pFlash.Sector = addresstmp = 0xFFFFFFFFU;
 345:C:/Users/073be/STM32Cube/Repository/STM32Cube_FW_F4_V1.23.0/Drivers/STM32F4xx_HAL_Driver/Src\stm32f4xx_hal_flash.c ****         pFlash.ProcedureOnGoing = FLASH_PROC_NONE;
 346:C:/Users/073be/STM32Cube/Repository/STM32Cube_FW_F4_V1.23.0/Drivers/STM32F4xx_HAL_Driver/Src\stm32f4xx_hal_flash.c ****         
 347:C:/Users/073be/STM32Cube/Repository/STM32Cube_FW_F4_V1.23.0/Drivers/STM32F4xx_HAL_Driver/Src\stm32f4xx_hal_flash.c ****         /* Flush the caches to be sure of the data consistency */
 348:C:/Users/073be/STM32Cube/Repository/STM32Cube_FW_F4_V1.23.0/Drivers/STM32F4xx_HAL_Driver/Src\stm32f4xx_hal_flash.c ****         FLASH_FlushCaches() ;
 349:C:/Users/073be/STM32Cube/Repository/STM32Cube_FW_F4_V1.23.0/Drivers/STM32F4xx_HAL_Driver/Src\stm32f4xx_hal_flash.c ****                 
 350:C:/Users/073be/STM32Cube/Repository/STM32Cube_FW_F4_V1.23.0/Drivers/STM32F4xx_HAL_Driver/Src\stm32f4xx_hal_flash.c ****         /* FLASH EOP interrupt user callback */
 351:C:/Users/073be/STM32Cube/Repository/STM32Cube_FW_F4_V1.23.0/Drivers/STM32F4xx_HAL_Driver/Src\stm32f4xx_hal_flash.c ****         HAL_FLASH_EndOfOperationCallback(addresstmp);
 352:C:/Users/073be/STM32Cube/Repository/STM32Cube_FW_F4_V1.23.0/Drivers/STM32F4xx_HAL_Driver/Src\stm32f4xx_hal_flash.c ****       }
 353:C:/Users/073be/STM32Cube/Repository/STM32Cube_FW_F4_V1.23.0/Drivers/STM32F4xx_HAL_Driver/Src\stm32f4xx_hal_flash.c ****     }
 354:C:/Users/073be/STM32Cube/Repository/STM32Cube_FW_F4_V1.23.0/Drivers/STM32F4xx_HAL_Driver/Src\stm32f4xx_hal_flash.c ****     else 
 355:C:/Users/073be/STM32Cube/Repository/STM32Cube_FW_F4_V1.23.0/Drivers/STM32F4xx_HAL_Driver/Src\stm32f4xx_hal_flash.c ****     {
 356:C:/Users/073be/STM32Cube/Repository/STM32Cube_FW_F4_V1.23.0/Drivers/STM32F4xx_HAL_Driver/Src\stm32f4xx_hal_flash.c ****       if(pFlash.ProcedureOnGoing == FLASH_PROC_MASSERASE) 
 357:C:/Users/073be/STM32Cube/Repository/STM32Cube_FW_F4_V1.23.0/Drivers/STM32F4xx_HAL_Driver/Src\stm32f4xx_hal_flash.c ****       {
 358:C:/Users/073be/STM32Cube/Repository/STM32Cube_FW_F4_V1.23.0/Drivers/STM32F4xx_HAL_Driver/Src\stm32f4xx_hal_flash.c ****         /* MassErase ended. Return the selected bank */
 359:C:/Users/073be/STM32Cube/Repository/STM32Cube_FW_F4_V1.23.0/Drivers/STM32F4xx_HAL_Driver/Src\stm32f4xx_hal_flash.c ****         /* Flush the caches to be sure of the data consistency */
 360:C:/Users/073be/STM32Cube/Repository/STM32Cube_FW_F4_V1.23.0/Drivers/STM32F4xx_HAL_Driver/Src\stm32f4xx_hal_flash.c ****         FLASH_FlushCaches() ;
 361:C:/Users/073be/STM32Cube/Repository/STM32Cube_FW_F4_V1.23.0/Drivers/STM32F4xx_HAL_Driver/Src\stm32f4xx_hal_flash.c **** 
 362:C:/Users/073be/STM32Cube/Repository/STM32Cube_FW_F4_V1.23.0/Drivers/STM32F4xx_HAL_Driver/Src\stm32f4xx_hal_flash.c ****         /* FLASH EOP interrupt user callback */
 363:C:/Users/073be/STM32Cube/Repository/STM32Cube_FW_F4_V1.23.0/Drivers/STM32F4xx_HAL_Driver/Src\stm32f4xx_hal_flash.c ****         HAL_FLASH_EndOfOperationCallback(pFlash.Bank);
 364:C:/Users/073be/STM32Cube/Repository/STM32Cube_FW_F4_V1.23.0/Drivers/STM32F4xx_HAL_Driver/Src\stm32f4xx_hal_flash.c ****       }
 365:C:/Users/073be/STM32Cube/Repository/STM32Cube_FW_F4_V1.23.0/Drivers/STM32F4xx_HAL_Driver/Src\stm32f4xx_hal_flash.c ****       else
 366:C:/Users/073be/STM32Cube/Repository/STM32Cube_FW_F4_V1.23.0/Drivers/STM32F4xx_HAL_Driver/Src\stm32f4xx_hal_flash.c ****       {
 367:C:/Users/073be/STM32Cube/Repository/STM32Cube_FW_F4_V1.23.0/Drivers/STM32F4xx_HAL_Driver/Src\stm32f4xx_hal_flash.c ****         /*Program ended. Return the selected address*/
 368:C:/Users/073be/STM32Cube/Repository/STM32Cube_FW_F4_V1.23.0/Drivers/STM32F4xx_HAL_Driver/Src\stm32f4xx_hal_flash.c ****         /* FLASH EOP interrupt user callback */
 369:C:/Users/073be/STM32Cube/Repository/STM32Cube_FW_F4_V1.23.0/Drivers/STM32F4xx_HAL_Driver/Src\stm32f4xx_hal_flash.c ****         HAL_FLASH_EndOfOperationCallback(pFlash.Address);
 370:C:/Users/073be/STM32Cube/Repository/STM32Cube_FW_F4_V1.23.0/Drivers/STM32F4xx_HAL_Driver/Src\stm32f4xx_hal_flash.c ****       }
 371:C:/Users/073be/STM32Cube/Repository/STM32Cube_FW_F4_V1.23.0/Drivers/STM32F4xx_HAL_Driver/Src\stm32f4xx_hal_flash.c ****       pFlash.ProcedureOnGoing = FLASH_PROC_NONE;
 372:C:/Users/073be/STM32Cube/Repository/STM32Cube_FW_F4_V1.23.0/Drivers/STM32F4xx_HAL_Driver/Src\stm32f4xx_hal_flash.c ****     }
 373:C:/Users/073be/STM32Cube/Repository/STM32Cube_FW_F4_V1.23.0/Drivers/STM32F4xx_HAL_Driver/Src\stm32f4xx_hal_flash.c ****   }
 374:C:/Users/073be/STM32Cube/Repository/STM32Cube_FW_F4_V1.23.0/Drivers/STM32F4xx_HAL_Driver/Src\stm32f4xx_hal_flash.c ****   
ARM GAS  C:\Users\073be\AppData\Local\Temp\cceGulUG.s 			page 8


 375:C:/Users/073be/STM32Cube/Repository/STM32Cube_FW_F4_V1.23.0/Drivers/STM32F4xx_HAL_Driver/Src\stm32f4xx_hal_flash.c ****   if(pFlash.ProcedureOnGoing == FLASH_PROC_NONE)
 376:C:/Users/073be/STM32Cube/Repository/STM32Cube_FW_F4_V1.23.0/Drivers/STM32F4xx_HAL_Driver/Src\stm32f4xx_hal_flash.c ****   {
 377:C:/Users/073be/STM32Cube/Repository/STM32Cube_FW_F4_V1.23.0/Drivers/STM32F4xx_HAL_Driver/Src\stm32f4xx_hal_flash.c ****     /* Operation is completed, disable the PG, SER, SNB and MER Bits */
 378:C:/Users/073be/STM32Cube/Repository/STM32Cube_FW_F4_V1.23.0/Drivers/STM32F4xx_HAL_Driver/Src\stm32f4xx_hal_flash.c ****     CLEAR_BIT(FLASH->CR, (FLASH_CR_PG | FLASH_CR_SER | FLASH_CR_SNB | FLASH_MER_BIT));
 379:C:/Users/073be/STM32Cube/Repository/STM32Cube_FW_F4_V1.23.0/Drivers/STM32F4xx_HAL_Driver/Src\stm32f4xx_hal_flash.c **** 
 380:C:/Users/073be/STM32Cube/Repository/STM32Cube_FW_F4_V1.23.0/Drivers/STM32F4xx_HAL_Driver/Src\stm32f4xx_hal_flash.c ****     /* Disable End of FLASH Operation interrupt */
 381:C:/Users/073be/STM32Cube/Repository/STM32Cube_FW_F4_V1.23.0/Drivers/STM32F4xx_HAL_Driver/Src\stm32f4xx_hal_flash.c ****     __HAL_FLASH_DISABLE_IT(FLASH_IT_EOP);
 382:C:/Users/073be/STM32Cube/Repository/STM32Cube_FW_F4_V1.23.0/Drivers/STM32F4xx_HAL_Driver/Src\stm32f4xx_hal_flash.c ****     
 383:C:/Users/073be/STM32Cube/Repository/STM32Cube_FW_F4_V1.23.0/Drivers/STM32F4xx_HAL_Driver/Src\stm32f4xx_hal_flash.c ****     /* Disable Error source interrupt */
 384:C:/Users/073be/STM32Cube/Repository/STM32Cube_FW_F4_V1.23.0/Drivers/STM32F4xx_HAL_Driver/Src\stm32f4xx_hal_flash.c ****     __HAL_FLASH_DISABLE_IT(FLASH_IT_ERR);
 385:C:/Users/073be/STM32Cube/Repository/STM32Cube_FW_F4_V1.23.0/Drivers/STM32F4xx_HAL_Driver/Src\stm32f4xx_hal_flash.c ****     
 386:C:/Users/073be/STM32Cube/Repository/STM32Cube_FW_F4_V1.23.0/Drivers/STM32F4xx_HAL_Driver/Src\stm32f4xx_hal_flash.c ****     /* Process Unlocked */
 387:C:/Users/073be/STM32Cube/Repository/STM32Cube_FW_F4_V1.23.0/Drivers/STM32F4xx_HAL_Driver/Src\stm32f4xx_hal_flash.c ****     __HAL_UNLOCK(&pFlash);
 388:C:/Users/073be/STM32Cube/Repository/STM32Cube_FW_F4_V1.23.0/Drivers/STM32F4xx_HAL_Driver/Src\stm32f4xx_hal_flash.c ****   }
 389:C:/Users/073be/STM32Cube/Repository/STM32Cube_FW_F4_V1.23.0/Drivers/STM32F4xx_HAL_Driver/Src\stm32f4xx_hal_flash.c **** }
 390:C:/Users/073be/STM32Cube/Repository/STM32Cube_FW_F4_V1.23.0/Drivers/STM32F4xx_HAL_Driver/Src\stm32f4xx_hal_flash.c **** 
 391:C:/Users/073be/STM32Cube/Repository/STM32Cube_FW_F4_V1.23.0/Drivers/STM32F4xx_HAL_Driver/Src\stm32f4xx_hal_flash.c **** /**
 392:C:/Users/073be/STM32Cube/Repository/STM32Cube_FW_F4_V1.23.0/Drivers/STM32F4xx_HAL_Driver/Src\stm32f4xx_hal_flash.c ****   * @brief  FLASH end of operation interrupt callback
 393:C:/Users/073be/STM32Cube/Repository/STM32Cube_FW_F4_V1.23.0/Drivers/STM32F4xx_HAL_Driver/Src\stm32f4xx_hal_flash.c ****   * @param  ReturnValue The value saved in this parameter depends on the ongoing procedure
 394:C:/Users/073be/STM32Cube/Repository/STM32Cube_FW_F4_V1.23.0/Drivers/STM32F4xx_HAL_Driver/Src\stm32f4xx_hal_flash.c ****   *                  Mass Erase: Bank number which has been requested to erase
 395:C:/Users/073be/STM32Cube/Repository/STM32Cube_FW_F4_V1.23.0/Drivers/STM32F4xx_HAL_Driver/Src\stm32f4xx_hal_flash.c ****   *                  Sectors Erase: Sector which has been erased 
 396:C:/Users/073be/STM32Cube/Repository/STM32Cube_FW_F4_V1.23.0/Drivers/STM32F4xx_HAL_Driver/Src\stm32f4xx_hal_flash.c ****   *                    (if 0xFFFFFFFFU, it means that all the selected sectors have been erased)
 397:C:/Users/073be/STM32Cube/Repository/STM32Cube_FW_F4_V1.23.0/Drivers/STM32F4xx_HAL_Driver/Src\stm32f4xx_hal_flash.c ****   *                  Program: Address which was selected for data program
 398:C:/Users/073be/STM32Cube/Repository/STM32Cube_FW_F4_V1.23.0/Drivers/STM32F4xx_HAL_Driver/Src\stm32f4xx_hal_flash.c ****   * @retval None
 399:C:/Users/073be/STM32Cube/Repository/STM32Cube_FW_F4_V1.23.0/Drivers/STM32F4xx_HAL_Driver/Src\stm32f4xx_hal_flash.c ****   */
 400:C:/Users/073be/STM32Cube/Repository/STM32Cube_FW_F4_V1.23.0/Drivers/STM32F4xx_HAL_Driver/Src\stm32f4xx_hal_flash.c **** __weak void HAL_FLASH_EndOfOperationCallback(uint32_t ReturnValue)
 401:C:/Users/073be/STM32Cube/Repository/STM32Cube_FW_F4_V1.23.0/Drivers/STM32F4xx_HAL_Driver/Src\stm32f4xx_hal_flash.c **** {
 402:C:/Users/073be/STM32Cube/Repository/STM32Cube_FW_F4_V1.23.0/Drivers/STM32F4xx_HAL_Driver/Src\stm32f4xx_hal_flash.c ****   /* Prevent unused argument(s) compilation warning */
 403:C:/Users/073be/STM32Cube/Repository/STM32Cube_FW_F4_V1.23.0/Drivers/STM32F4xx_HAL_Driver/Src\stm32f4xx_hal_flash.c ****   UNUSED(ReturnValue);
 404:C:/Users/073be/STM32Cube/Repository/STM32Cube_FW_F4_V1.23.0/Drivers/STM32F4xx_HAL_Driver/Src\stm32f4xx_hal_flash.c ****   /* NOTE : This function Should not be modified, when the callback is needed,
 405:C:/Users/073be/STM32Cube/Repository/STM32Cube_FW_F4_V1.23.0/Drivers/STM32F4xx_HAL_Driver/Src\stm32f4xx_hal_flash.c ****             the HAL_FLASH_EndOfOperationCallback could be implemented in the user file
 406:C:/Users/073be/STM32Cube/Repository/STM32Cube_FW_F4_V1.23.0/Drivers/STM32F4xx_HAL_Driver/Src\stm32f4xx_hal_flash.c ****    */ 
 407:C:/Users/073be/STM32Cube/Repository/STM32Cube_FW_F4_V1.23.0/Drivers/STM32F4xx_HAL_Driver/Src\stm32f4xx_hal_flash.c **** }
 408:C:/Users/073be/STM32Cube/Repository/STM32Cube_FW_F4_V1.23.0/Drivers/STM32F4xx_HAL_Driver/Src\stm32f4xx_hal_flash.c **** 
 409:C:/Users/073be/STM32Cube/Repository/STM32Cube_FW_F4_V1.23.0/Drivers/STM32F4xx_HAL_Driver/Src\stm32f4xx_hal_flash.c **** /**
 410:C:/Users/073be/STM32Cube/Repository/STM32Cube_FW_F4_V1.23.0/Drivers/STM32F4xx_HAL_Driver/Src\stm32f4xx_hal_flash.c ****   * @brief  FLASH operation error interrupt callback
 411:C:/Users/073be/STM32Cube/Repository/STM32Cube_FW_F4_V1.23.0/Drivers/STM32F4xx_HAL_Driver/Src\stm32f4xx_hal_flash.c ****   * @param  ReturnValue The value saved in this parameter depends on the ongoing procedure
 412:C:/Users/073be/STM32Cube/Repository/STM32Cube_FW_F4_V1.23.0/Drivers/STM32F4xx_HAL_Driver/Src\stm32f4xx_hal_flash.c ****   *                 Mass Erase: Bank number which has been requested to erase
 413:C:/Users/073be/STM32Cube/Repository/STM32Cube_FW_F4_V1.23.0/Drivers/STM32F4xx_HAL_Driver/Src\stm32f4xx_hal_flash.c ****   *                 Sectors Erase: Sector number which returned an error
 414:C:/Users/073be/STM32Cube/Repository/STM32Cube_FW_F4_V1.23.0/Drivers/STM32F4xx_HAL_Driver/Src\stm32f4xx_hal_flash.c ****   *                 Program: Address which was selected for data program
 415:C:/Users/073be/STM32Cube/Repository/STM32Cube_FW_F4_V1.23.0/Drivers/STM32F4xx_HAL_Driver/Src\stm32f4xx_hal_flash.c ****   * @retval None
 416:C:/Users/073be/STM32Cube/Repository/STM32Cube_FW_F4_V1.23.0/Drivers/STM32F4xx_HAL_Driver/Src\stm32f4xx_hal_flash.c ****   */
 417:C:/Users/073be/STM32Cube/Repository/STM32Cube_FW_F4_V1.23.0/Drivers/STM32F4xx_HAL_Driver/Src\stm32f4xx_hal_flash.c **** __weak void HAL_FLASH_OperationErrorCallback(uint32_t ReturnValue)
 418:C:/Users/073be/STM32Cube/Repository/STM32Cube_FW_F4_V1.23.0/Drivers/STM32F4xx_HAL_Driver/Src\stm32f4xx_hal_flash.c **** {
 419:C:/Users/073be/STM32Cube/Repository/STM32Cube_FW_F4_V1.23.0/Drivers/STM32F4xx_HAL_Driver/Src\stm32f4xx_hal_flash.c ****   /* Prevent unused argument(s) compilation warning */
 420:C:/Users/073be/STM32Cube/Repository/STM32Cube_FW_F4_V1.23.0/Drivers/STM32F4xx_HAL_Driver/Src\stm32f4xx_hal_flash.c ****   UNUSED(ReturnValue);
 421:C:/Users/073be/STM32Cube/Repository/STM32Cube_FW_F4_V1.23.0/Drivers/STM32F4xx_HAL_Driver/Src\stm32f4xx_hal_flash.c ****   /* NOTE : This function Should not be modified, when the callback is needed,
 422:C:/Users/073be/STM32Cube/Repository/STM32Cube_FW_F4_V1.23.0/Drivers/STM32F4xx_HAL_Driver/Src\stm32f4xx_hal_flash.c ****             the HAL_FLASH_OperationErrorCallback could be implemented in the user file
 423:C:/Users/073be/STM32Cube/Repository/STM32Cube_FW_F4_V1.23.0/Drivers/STM32F4xx_HAL_Driver/Src\stm32f4xx_hal_flash.c ****    */ 
 424:C:/Users/073be/STM32Cube/Repository/STM32Cube_FW_F4_V1.23.0/Drivers/STM32F4xx_HAL_Driver/Src\stm32f4xx_hal_flash.c **** }
 425:C:/Users/073be/STM32Cube/Repository/STM32Cube_FW_F4_V1.23.0/Drivers/STM32F4xx_HAL_Driver/Src\stm32f4xx_hal_flash.c **** 
 426:C:/Users/073be/STM32Cube/Repository/STM32Cube_FW_F4_V1.23.0/Drivers/STM32F4xx_HAL_Driver/Src\stm32f4xx_hal_flash.c **** /**
 427:C:/Users/073be/STM32Cube/Repository/STM32Cube_FW_F4_V1.23.0/Drivers/STM32F4xx_HAL_Driver/Src\stm32f4xx_hal_flash.c ****   * @}
 428:C:/Users/073be/STM32Cube/Repository/STM32Cube_FW_F4_V1.23.0/Drivers/STM32F4xx_HAL_Driver/Src\stm32f4xx_hal_flash.c ****   */
 429:C:/Users/073be/STM32Cube/Repository/STM32Cube_FW_F4_V1.23.0/Drivers/STM32F4xx_HAL_Driver/Src\stm32f4xx_hal_flash.c **** 
 430:C:/Users/073be/STM32Cube/Repository/STM32Cube_FW_F4_V1.23.0/Drivers/STM32F4xx_HAL_Driver/Src\stm32f4xx_hal_flash.c **** /** @defgroup FLASH_Exported_Functions_Group2 Peripheral Control functions 
 431:C:/Users/073be/STM32Cube/Repository/STM32Cube_FW_F4_V1.23.0/Drivers/STM32F4xx_HAL_Driver/Src\stm32f4xx_hal_flash.c ****  *  @brief   management functions 
ARM GAS  C:\Users\073be\AppData\Local\Temp\cceGulUG.s 			page 9


 432:C:/Users/073be/STM32Cube/Repository/STM32Cube_FW_F4_V1.23.0/Drivers/STM32F4xx_HAL_Driver/Src\stm32f4xx_hal_flash.c ****  *
 433:C:/Users/073be/STM32Cube/Repository/STM32Cube_FW_F4_V1.23.0/Drivers/STM32F4xx_HAL_Driver/Src\stm32f4xx_hal_flash.c **** @verbatim   
 434:C:/Users/073be/STM32Cube/Repository/STM32Cube_FW_F4_V1.23.0/Drivers/STM32F4xx_HAL_Driver/Src\stm32f4xx_hal_flash.c ****  ===============================================================================
 435:C:/Users/073be/STM32Cube/Repository/STM32Cube_FW_F4_V1.23.0/Drivers/STM32F4xx_HAL_Driver/Src\stm32f4xx_hal_flash.c ****                       ##### Peripheral Control functions #####
 436:C:/Users/073be/STM32Cube/Repository/STM32Cube_FW_F4_V1.23.0/Drivers/STM32F4xx_HAL_Driver/Src\stm32f4xx_hal_flash.c ****  ===============================================================================  
 437:C:/Users/073be/STM32Cube/Repository/STM32Cube_FW_F4_V1.23.0/Drivers/STM32F4xx_HAL_Driver/Src\stm32f4xx_hal_flash.c ****     [..]
 438:C:/Users/073be/STM32Cube/Repository/STM32Cube_FW_F4_V1.23.0/Drivers/STM32F4xx_HAL_Driver/Src\stm32f4xx_hal_flash.c ****     This subsection provides a set of functions allowing to control the FLASH 
 439:C:/Users/073be/STM32Cube/Repository/STM32Cube_FW_F4_V1.23.0/Drivers/STM32F4xx_HAL_Driver/Src\stm32f4xx_hal_flash.c ****     memory operations.
 440:C:/Users/073be/STM32Cube/Repository/STM32Cube_FW_F4_V1.23.0/Drivers/STM32F4xx_HAL_Driver/Src\stm32f4xx_hal_flash.c **** 
 441:C:/Users/073be/STM32Cube/Repository/STM32Cube_FW_F4_V1.23.0/Drivers/STM32F4xx_HAL_Driver/Src\stm32f4xx_hal_flash.c **** @endverbatim
 442:C:/Users/073be/STM32Cube/Repository/STM32Cube_FW_F4_V1.23.0/Drivers/STM32F4xx_HAL_Driver/Src\stm32f4xx_hal_flash.c ****   * @{
 443:C:/Users/073be/STM32Cube/Repository/STM32Cube_FW_F4_V1.23.0/Drivers/STM32F4xx_HAL_Driver/Src\stm32f4xx_hal_flash.c ****   */
 444:C:/Users/073be/STM32Cube/Repository/STM32Cube_FW_F4_V1.23.0/Drivers/STM32F4xx_HAL_Driver/Src\stm32f4xx_hal_flash.c **** 
 445:C:/Users/073be/STM32Cube/Repository/STM32Cube_FW_F4_V1.23.0/Drivers/STM32F4xx_HAL_Driver/Src\stm32f4xx_hal_flash.c **** /**
 446:C:/Users/073be/STM32Cube/Repository/STM32Cube_FW_F4_V1.23.0/Drivers/STM32F4xx_HAL_Driver/Src\stm32f4xx_hal_flash.c ****   * @brief  Unlock the FLASH control register access
 447:C:/Users/073be/STM32Cube/Repository/STM32Cube_FW_F4_V1.23.0/Drivers/STM32F4xx_HAL_Driver/Src\stm32f4xx_hal_flash.c ****   * @retval HAL Status
 448:C:/Users/073be/STM32Cube/Repository/STM32Cube_FW_F4_V1.23.0/Drivers/STM32F4xx_HAL_Driver/Src\stm32f4xx_hal_flash.c ****   */
 449:C:/Users/073be/STM32Cube/Repository/STM32Cube_FW_F4_V1.23.0/Drivers/STM32F4xx_HAL_Driver/Src\stm32f4xx_hal_flash.c **** HAL_StatusTypeDef HAL_FLASH_Unlock(void)
 450:C:/Users/073be/STM32Cube/Repository/STM32Cube_FW_F4_V1.23.0/Drivers/STM32F4xx_HAL_Driver/Src\stm32f4xx_hal_flash.c **** {
 451:C:/Users/073be/STM32Cube/Repository/STM32Cube_FW_F4_V1.23.0/Drivers/STM32F4xx_HAL_Driver/Src\stm32f4xx_hal_flash.c ****   HAL_StatusTypeDef status = HAL_OK;
 452:C:/Users/073be/STM32Cube/Repository/STM32Cube_FW_F4_V1.23.0/Drivers/STM32F4xx_HAL_Driver/Src\stm32f4xx_hal_flash.c **** 
 453:C:/Users/073be/STM32Cube/Repository/STM32Cube_FW_F4_V1.23.0/Drivers/STM32F4xx_HAL_Driver/Src\stm32f4xx_hal_flash.c ****   if(READ_BIT(FLASH->CR, FLASH_CR_LOCK) != RESET)
 454:C:/Users/073be/STM32Cube/Repository/STM32Cube_FW_F4_V1.23.0/Drivers/STM32F4xx_HAL_Driver/Src\stm32f4xx_hal_flash.c ****   {
 455:C:/Users/073be/STM32Cube/Repository/STM32Cube_FW_F4_V1.23.0/Drivers/STM32F4xx_HAL_Driver/Src\stm32f4xx_hal_flash.c ****     /* Authorize the FLASH Registers access */
 456:C:/Users/073be/STM32Cube/Repository/STM32Cube_FW_F4_V1.23.0/Drivers/STM32F4xx_HAL_Driver/Src\stm32f4xx_hal_flash.c ****     WRITE_REG(FLASH->KEYR, FLASH_KEY1);
 457:C:/Users/073be/STM32Cube/Repository/STM32Cube_FW_F4_V1.23.0/Drivers/STM32F4xx_HAL_Driver/Src\stm32f4xx_hal_flash.c ****     WRITE_REG(FLASH->KEYR, FLASH_KEY2);
 458:C:/Users/073be/STM32Cube/Repository/STM32Cube_FW_F4_V1.23.0/Drivers/STM32F4xx_HAL_Driver/Src\stm32f4xx_hal_flash.c **** 
 459:C:/Users/073be/STM32Cube/Repository/STM32Cube_FW_F4_V1.23.0/Drivers/STM32F4xx_HAL_Driver/Src\stm32f4xx_hal_flash.c ****     /* Verify Flash is unlocked */
 460:C:/Users/073be/STM32Cube/Repository/STM32Cube_FW_F4_V1.23.0/Drivers/STM32F4xx_HAL_Driver/Src\stm32f4xx_hal_flash.c ****     if(READ_BIT(FLASH->CR, FLASH_CR_LOCK) != RESET)
 461:C:/Users/073be/STM32Cube/Repository/STM32Cube_FW_F4_V1.23.0/Drivers/STM32F4xx_HAL_Driver/Src\stm32f4xx_hal_flash.c ****     {
 462:C:/Users/073be/STM32Cube/Repository/STM32Cube_FW_F4_V1.23.0/Drivers/STM32F4xx_HAL_Driver/Src\stm32f4xx_hal_flash.c ****       status = HAL_ERROR;
 463:C:/Users/073be/STM32Cube/Repository/STM32Cube_FW_F4_V1.23.0/Drivers/STM32F4xx_HAL_Driver/Src\stm32f4xx_hal_flash.c ****     }
 464:C:/Users/073be/STM32Cube/Repository/STM32Cube_FW_F4_V1.23.0/Drivers/STM32F4xx_HAL_Driver/Src\stm32f4xx_hal_flash.c ****   }
 465:C:/Users/073be/STM32Cube/Repository/STM32Cube_FW_F4_V1.23.0/Drivers/STM32F4xx_HAL_Driver/Src\stm32f4xx_hal_flash.c **** 
 466:C:/Users/073be/STM32Cube/Repository/STM32Cube_FW_F4_V1.23.0/Drivers/STM32F4xx_HAL_Driver/Src\stm32f4xx_hal_flash.c ****   return status;
 467:C:/Users/073be/STM32Cube/Repository/STM32Cube_FW_F4_V1.23.0/Drivers/STM32F4xx_HAL_Driver/Src\stm32f4xx_hal_flash.c **** }
 468:C:/Users/073be/STM32Cube/Repository/STM32Cube_FW_F4_V1.23.0/Drivers/STM32F4xx_HAL_Driver/Src\stm32f4xx_hal_flash.c **** 
 469:C:/Users/073be/STM32Cube/Repository/STM32Cube_FW_F4_V1.23.0/Drivers/STM32F4xx_HAL_Driver/Src\stm32f4xx_hal_flash.c **** /**
 470:C:/Users/073be/STM32Cube/Repository/STM32Cube_FW_F4_V1.23.0/Drivers/STM32F4xx_HAL_Driver/Src\stm32f4xx_hal_flash.c ****   * @brief  Locks the FLASH control register access
 471:C:/Users/073be/STM32Cube/Repository/STM32Cube_FW_F4_V1.23.0/Drivers/STM32F4xx_HAL_Driver/Src\stm32f4xx_hal_flash.c ****   * @retval HAL Status
 472:C:/Users/073be/STM32Cube/Repository/STM32Cube_FW_F4_V1.23.0/Drivers/STM32F4xx_HAL_Driver/Src\stm32f4xx_hal_flash.c ****   */
 473:C:/Users/073be/STM32Cube/Repository/STM32Cube_FW_F4_V1.23.0/Drivers/STM32F4xx_HAL_Driver/Src\stm32f4xx_hal_flash.c **** HAL_StatusTypeDef HAL_FLASH_Lock(void)
 474:C:/Users/073be/STM32Cube/Repository/STM32Cube_FW_F4_V1.23.0/Drivers/STM32F4xx_HAL_Driver/Src\stm32f4xx_hal_flash.c **** {
 475:C:/Users/073be/STM32Cube/Repository/STM32Cube_FW_F4_V1.23.0/Drivers/STM32F4xx_HAL_Driver/Src\stm32f4xx_hal_flash.c ****   /* Set the LOCK Bit to lock the FLASH Registers access */
 476:C:/Users/073be/STM32Cube/Repository/STM32Cube_FW_F4_V1.23.0/Drivers/STM32F4xx_HAL_Driver/Src\stm32f4xx_hal_flash.c ****   FLASH->CR |= FLASH_CR_LOCK;
 477:C:/Users/073be/STM32Cube/Repository/STM32Cube_FW_F4_V1.23.0/Drivers/STM32F4xx_HAL_Driver/Src\stm32f4xx_hal_flash.c ****   
 478:C:/Users/073be/STM32Cube/Repository/STM32Cube_FW_F4_V1.23.0/Drivers/STM32F4xx_HAL_Driver/Src\stm32f4xx_hal_flash.c ****   return HAL_OK;  
 479:C:/Users/073be/STM32Cube/Repository/STM32Cube_FW_F4_V1.23.0/Drivers/STM32F4xx_HAL_Driver/Src\stm32f4xx_hal_flash.c **** }
 480:C:/Users/073be/STM32Cube/Repository/STM32Cube_FW_F4_V1.23.0/Drivers/STM32F4xx_HAL_Driver/Src\stm32f4xx_hal_flash.c **** 
 481:C:/Users/073be/STM32Cube/Repository/STM32Cube_FW_F4_V1.23.0/Drivers/STM32F4xx_HAL_Driver/Src\stm32f4xx_hal_flash.c **** /**
 482:C:/Users/073be/STM32Cube/Repository/STM32Cube_FW_F4_V1.23.0/Drivers/STM32F4xx_HAL_Driver/Src\stm32f4xx_hal_flash.c ****   * @brief  Unlock the FLASH Option Control Registers access.
 483:C:/Users/073be/STM32Cube/Repository/STM32Cube_FW_F4_V1.23.0/Drivers/STM32F4xx_HAL_Driver/Src\stm32f4xx_hal_flash.c ****   * @retval HAL Status
 484:C:/Users/073be/STM32Cube/Repository/STM32Cube_FW_F4_V1.23.0/Drivers/STM32F4xx_HAL_Driver/Src\stm32f4xx_hal_flash.c ****   */
 485:C:/Users/073be/STM32Cube/Repository/STM32Cube_FW_F4_V1.23.0/Drivers/STM32F4xx_HAL_Driver/Src\stm32f4xx_hal_flash.c **** HAL_StatusTypeDef HAL_FLASH_OB_Unlock(void)
 486:C:/Users/073be/STM32Cube/Repository/STM32Cube_FW_F4_V1.23.0/Drivers/STM32F4xx_HAL_Driver/Src\stm32f4xx_hal_flash.c **** {
 487:C:/Users/073be/STM32Cube/Repository/STM32Cube_FW_F4_V1.23.0/Drivers/STM32F4xx_HAL_Driver/Src\stm32f4xx_hal_flash.c ****   if((FLASH->OPTCR & FLASH_OPTCR_OPTLOCK) != RESET)
 488:C:/Users/073be/STM32Cube/Repository/STM32Cube_FW_F4_V1.23.0/Drivers/STM32F4xx_HAL_Driver/Src\stm32f4xx_hal_flash.c ****   {
ARM GAS  C:\Users\073be\AppData\Local\Temp\cceGulUG.s 			page 10


 489:C:/Users/073be/STM32Cube/Repository/STM32Cube_FW_F4_V1.23.0/Drivers/STM32F4xx_HAL_Driver/Src\stm32f4xx_hal_flash.c ****     /* Authorizes the Option Byte register programming */
 490:C:/Users/073be/STM32Cube/Repository/STM32Cube_FW_F4_V1.23.0/Drivers/STM32F4xx_HAL_Driver/Src\stm32f4xx_hal_flash.c ****     FLASH->OPTKEYR = FLASH_OPT_KEY1;
 491:C:/Users/073be/STM32Cube/Repository/STM32Cube_FW_F4_V1.23.0/Drivers/STM32F4xx_HAL_Driver/Src\stm32f4xx_hal_flash.c ****     FLASH->OPTKEYR = FLASH_OPT_KEY2;
 492:C:/Users/073be/STM32Cube/Repository/STM32Cube_FW_F4_V1.23.0/Drivers/STM32F4xx_HAL_Driver/Src\stm32f4xx_hal_flash.c ****   }
 493:C:/Users/073be/STM32Cube/Repository/STM32Cube_FW_F4_V1.23.0/Drivers/STM32F4xx_HAL_Driver/Src\stm32f4xx_hal_flash.c ****   else
 494:C:/Users/073be/STM32Cube/Repository/STM32Cube_FW_F4_V1.23.0/Drivers/STM32F4xx_HAL_Driver/Src\stm32f4xx_hal_flash.c ****   {
 495:C:/Users/073be/STM32Cube/Repository/STM32Cube_FW_F4_V1.23.0/Drivers/STM32F4xx_HAL_Driver/Src\stm32f4xx_hal_flash.c ****     return HAL_ERROR;
 496:C:/Users/073be/STM32Cube/Repository/STM32Cube_FW_F4_V1.23.0/Drivers/STM32F4xx_HAL_Driver/Src\stm32f4xx_hal_flash.c ****   }  
 497:C:/Users/073be/STM32Cube/Repository/STM32Cube_FW_F4_V1.23.0/Drivers/STM32F4xx_HAL_Driver/Src\stm32f4xx_hal_flash.c ****   
 498:C:/Users/073be/STM32Cube/Repository/STM32Cube_FW_F4_V1.23.0/Drivers/STM32F4xx_HAL_Driver/Src\stm32f4xx_hal_flash.c ****   return HAL_OK;  
 499:C:/Users/073be/STM32Cube/Repository/STM32Cube_FW_F4_V1.23.0/Drivers/STM32F4xx_HAL_Driver/Src\stm32f4xx_hal_flash.c **** }
 500:C:/Users/073be/STM32Cube/Repository/STM32Cube_FW_F4_V1.23.0/Drivers/STM32F4xx_HAL_Driver/Src\stm32f4xx_hal_flash.c **** 
 501:C:/Users/073be/STM32Cube/Repository/STM32Cube_FW_F4_V1.23.0/Drivers/STM32F4xx_HAL_Driver/Src\stm32f4xx_hal_flash.c **** /**
 502:C:/Users/073be/STM32Cube/Repository/STM32Cube_FW_F4_V1.23.0/Drivers/STM32F4xx_HAL_Driver/Src\stm32f4xx_hal_flash.c ****   * @brief  Lock the FLASH Option Control Registers access.
 503:C:/Users/073be/STM32Cube/Repository/STM32Cube_FW_F4_V1.23.0/Drivers/STM32F4xx_HAL_Driver/Src\stm32f4xx_hal_flash.c ****   * @retval HAL Status 
 504:C:/Users/073be/STM32Cube/Repository/STM32Cube_FW_F4_V1.23.0/Drivers/STM32F4xx_HAL_Driver/Src\stm32f4xx_hal_flash.c ****   */
 505:C:/Users/073be/STM32Cube/Repository/STM32Cube_FW_F4_V1.23.0/Drivers/STM32F4xx_HAL_Driver/Src\stm32f4xx_hal_flash.c **** HAL_StatusTypeDef HAL_FLASH_OB_Lock(void)
 506:C:/Users/073be/STM32Cube/Repository/STM32Cube_FW_F4_V1.23.0/Drivers/STM32F4xx_HAL_Driver/Src\stm32f4xx_hal_flash.c **** {
 507:C:/Users/073be/STM32Cube/Repository/STM32Cube_FW_F4_V1.23.0/Drivers/STM32F4xx_HAL_Driver/Src\stm32f4xx_hal_flash.c ****   /* Set the OPTLOCK Bit to lock the FLASH Option Byte Registers access */
 508:C:/Users/073be/STM32Cube/Repository/STM32Cube_FW_F4_V1.23.0/Drivers/STM32F4xx_HAL_Driver/Src\stm32f4xx_hal_flash.c ****   FLASH->OPTCR |= FLASH_OPTCR_OPTLOCK;
 509:C:/Users/073be/STM32Cube/Repository/STM32Cube_FW_F4_V1.23.0/Drivers/STM32F4xx_HAL_Driver/Src\stm32f4xx_hal_flash.c ****   
 510:C:/Users/073be/STM32Cube/Repository/STM32Cube_FW_F4_V1.23.0/Drivers/STM32F4xx_HAL_Driver/Src\stm32f4xx_hal_flash.c ****   return HAL_OK;  
 511:C:/Users/073be/STM32Cube/Repository/STM32Cube_FW_F4_V1.23.0/Drivers/STM32F4xx_HAL_Driver/Src\stm32f4xx_hal_flash.c **** }
 512:C:/Users/073be/STM32Cube/Repository/STM32Cube_FW_F4_V1.23.0/Drivers/STM32F4xx_HAL_Driver/Src\stm32f4xx_hal_flash.c **** 
 513:C:/Users/073be/STM32Cube/Repository/STM32Cube_FW_F4_V1.23.0/Drivers/STM32F4xx_HAL_Driver/Src\stm32f4xx_hal_flash.c **** /**
 514:C:/Users/073be/STM32Cube/Repository/STM32Cube_FW_F4_V1.23.0/Drivers/STM32F4xx_HAL_Driver/Src\stm32f4xx_hal_flash.c ****   * @brief  Launch the option byte loading.
 515:C:/Users/073be/STM32Cube/Repository/STM32Cube_FW_F4_V1.23.0/Drivers/STM32F4xx_HAL_Driver/Src\stm32f4xx_hal_flash.c ****   * @retval HAL Status
 516:C:/Users/073be/STM32Cube/Repository/STM32Cube_FW_F4_V1.23.0/Drivers/STM32F4xx_HAL_Driver/Src\stm32f4xx_hal_flash.c ****   */
 517:C:/Users/073be/STM32Cube/Repository/STM32Cube_FW_F4_V1.23.0/Drivers/STM32F4xx_HAL_Driver/Src\stm32f4xx_hal_flash.c **** HAL_StatusTypeDef HAL_FLASH_OB_Launch(void)
 518:C:/Users/073be/STM32Cube/Repository/STM32Cube_FW_F4_V1.23.0/Drivers/STM32F4xx_HAL_Driver/Src\stm32f4xx_hal_flash.c **** {
 519:C:/Users/073be/STM32Cube/Repository/STM32Cube_FW_F4_V1.23.0/Drivers/STM32F4xx_HAL_Driver/Src\stm32f4xx_hal_flash.c ****   /* Set the OPTSTRT bit in OPTCR register */
 520:C:/Users/073be/STM32Cube/Repository/STM32Cube_FW_F4_V1.23.0/Drivers/STM32F4xx_HAL_Driver/Src\stm32f4xx_hal_flash.c ****   *(__IO uint8_t *)OPTCR_BYTE0_ADDRESS |= FLASH_OPTCR_OPTSTRT;
 521:C:/Users/073be/STM32Cube/Repository/STM32Cube_FW_F4_V1.23.0/Drivers/STM32F4xx_HAL_Driver/Src\stm32f4xx_hal_flash.c **** 
 522:C:/Users/073be/STM32Cube/Repository/STM32Cube_FW_F4_V1.23.0/Drivers/STM32F4xx_HAL_Driver/Src\stm32f4xx_hal_flash.c ****   /* Wait for last operation to be completed */
 523:C:/Users/073be/STM32Cube/Repository/STM32Cube_FW_F4_V1.23.0/Drivers/STM32F4xx_HAL_Driver/Src\stm32f4xx_hal_flash.c ****   return(FLASH_WaitForLastOperation((uint32_t)FLASH_TIMEOUT_VALUE)); 
 524:C:/Users/073be/STM32Cube/Repository/STM32Cube_FW_F4_V1.23.0/Drivers/STM32F4xx_HAL_Driver/Src\stm32f4xx_hal_flash.c **** }
 525:C:/Users/073be/STM32Cube/Repository/STM32Cube_FW_F4_V1.23.0/Drivers/STM32F4xx_HAL_Driver/Src\stm32f4xx_hal_flash.c **** 
 526:C:/Users/073be/STM32Cube/Repository/STM32Cube_FW_F4_V1.23.0/Drivers/STM32F4xx_HAL_Driver/Src\stm32f4xx_hal_flash.c **** /**
 527:C:/Users/073be/STM32Cube/Repository/STM32Cube_FW_F4_V1.23.0/Drivers/STM32F4xx_HAL_Driver/Src\stm32f4xx_hal_flash.c ****   * @}
 528:C:/Users/073be/STM32Cube/Repository/STM32Cube_FW_F4_V1.23.0/Drivers/STM32F4xx_HAL_Driver/Src\stm32f4xx_hal_flash.c ****   */
 529:C:/Users/073be/STM32Cube/Repository/STM32Cube_FW_F4_V1.23.0/Drivers/STM32F4xx_HAL_Driver/Src\stm32f4xx_hal_flash.c **** 
 530:C:/Users/073be/STM32Cube/Repository/STM32Cube_FW_F4_V1.23.0/Drivers/STM32F4xx_HAL_Driver/Src\stm32f4xx_hal_flash.c **** /** @defgroup FLASH_Exported_Functions_Group3 Peripheral State and Errors functions 
 531:C:/Users/073be/STM32Cube/Repository/STM32Cube_FW_F4_V1.23.0/Drivers/STM32F4xx_HAL_Driver/Src\stm32f4xx_hal_flash.c ****  *  @brief   Peripheral Errors functions 
 532:C:/Users/073be/STM32Cube/Repository/STM32Cube_FW_F4_V1.23.0/Drivers/STM32F4xx_HAL_Driver/Src\stm32f4xx_hal_flash.c ****  *
 533:C:/Users/073be/STM32Cube/Repository/STM32Cube_FW_F4_V1.23.0/Drivers/STM32F4xx_HAL_Driver/Src\stm32f4xx_hal_flash.c **** @verbatim   
 534:C:/Users/073be/STM32Cube/Repository/STM32Cube_FW_F4_V1.23.0/Drivers/STM32F4xx_HAL_Driver/Src\stm32f4xx_hal_flash.c ****  ===============================================================================
 535:C:/Users/073be/STM32Cube/Repository/STM32Cube_FW_F4_V1.23.0/Drivers/STM32F4xx_HAL_Driver/Src\stm32f4xx_hal_flash.c ****                 ##### Peripheral Errors functions #####
 536:C:/Users/073be/STM32Cube/Repository/STM32Cube_FW_F4_V1.23.0/Drivers/STM32F4xx_HAL_Driver/Src\stm32f4xx_hal_flash.c ****  ===============================================================================  
 537:C:/Users/073be/STM32Cube/Repository/STM32Cube_FW_F4_V1.23.0/Drivers/STM32F4xx_HAL_Driver/Src\stm32f4xx_hal_flash.c ****     [..]
 538:C:/Users/073be/STM32Cube/Repository/STM32Cube_FW_F4_V1.23.0/Drivers/STM32F4xx_HAL_Driver/Src\stm32f4xx_hal_flash.c ****     This subsection permits to get in run-time Errors of the FLASH peripheral.
 539:C:/Users/073be/STM32Cube/Repository/STM32Cube_FW_F4_V1.23.0/Drivers/STM32F4xx_HAL_Driver/Src\stm32f4xx_hal_flash.c **** 
 540:C:/Users/073be/STM32Cube/Repository/STM32Cube_FW_F4_V1.23.0/Drivers/STM32F4xx_HAL_Driver/Src\stm32f4xx_hal_flash.c **** @endverbatim
 541:C:/Users/073be/STM32Cube/Repository/STM32Cube_FW_F4_V1.23.0/Drivers/STM32F4xx_HAL_Driver/Src\stm32f4xx_hal_flash.c ****   * @{
 542:C:/Users/073be/STM32Cube/Repository/STM32Cube_FW_F4_V1.23.0/Drivers/STM32F4xx_HAL_Driver/Src\stm32f4xx_hal_flash.c ****   */
 543:C:/Users/073be/STM32Cube/Repository/STM32Cube_FW_F4_V1.23.0/Drivers/STM32F4xx_HAL_Driver/Src\stm32f4xx_hal_flash.c **** 
 544:C:/Users/073be/STM32Cube/Repository/STM32Cube_FW_F4_V1.23.0/Drivers/STM32F4xx_HAL_Driver/Src\stm32f4xx_hal_flash.c **** /**
 545:C:/Users/073be/STM32Cube/Repository/STM32Cube_FW_F4_V1.23.0/Drivers/STM32F4xx_HAL_Driver/Src\stm32f4xx_hal_flash.c ****   * @brief  Get the specific FLASH error flag.
ARM GAS  C:\Users\073be\AppData\Local\Temp\cceGulUG.s 			page 11


 546:C:/Users/073be/STM32Cube/Repository/STM32Cube_FW_F4_V1.23.0/Drivers/STM32F4xx_HAL_Driver/Src\stm32f4xx_hal_flash.c ****   * @retval FLASH_ErrorCode: The returned value can be a combination of:
 547:C:/Users/073be/STM32Cube/Repository/STM32Cube_FW_F4_V1.23.0/Drivers/STM32F4xx_HAL_Driver/Src\stm32f4xx_hal_flash.c ****   *            @arg HAL_FLASH_ERROR_RD: FLASH Read Protection error flag (PCROP)
 548:C:/Users/073be/STM32Cube/Repository/STM32Cube_FW_F4_V1.23.0/Drivers/STM32F4xx_HAL_Driver/Src\stm32f4xx_hal_flash.c ****   *            @arg HAL_FLASH_ERROR_PGS: FLASH Programming Sequence error flag 
 549:C:/Users/073be/STM32Cube/Repository/STM32Cube_FW_F4_V1.23.0/Drivers/STM32F4xx_HAL_Driver/Src\stm32f4xx_hal_flash.c ****   *            @arg HAL_FLASH_ERROR_PGP: FLASH Programming Parallelism error flag  
 550:C:/Users/073be/STM32Cube/Repository/STM32Cube_FW_F4_V1.23.0/Drivers/STM32F4xx_HAL_Driver/Src\stm32f4xx_hal_flash.c ****   *            @arg HAL_FLASH_ERROR_PGA: FLASH Programming Alignment error flag
 551:C:/Users/073be/STM32Cube/Repository/STM32Cube_FW_F4_V1.23.0/Drivers/STM32F4xx_HAL_Driver/Src\stm32f4xx_hal_flash.c ****   *            @arg HAL_FLASH_ERROR_WRP: FLASH Write protected error flag
 552:C:/Users/073be/STM32Cube/Repository/STM32Cube_FW_F4_V1.23.0/Drivers/STM32F4xx_HAL_Driver/Src\stm32f4xx_hal_flash.c ****   *            @arg HAL_FLASH_ERROR_OPERATION: FLASH operation Error flag 
 553:C:/Users/073be/STM32Cube/Repository/STM32Cube_FW_F4_V1.23.0/Drivers/STM32F4xx_HAL_Driver/Src\stm32f4xx_hal_flash.c ****   */
 554:C:/Users/073be/STM32Cube/Repository/STM32Cube_FW_F4_V1.23.0/Drivers/STM32F4xx_HAL_Driver/Src\stm32f4xx_hal_flash.c **** uint32_t HAL_FLASH_GetError(void)
 555:C:/Users/073be/STM32Cube/Repository/STM32Cube_FW_F4_V1.23.0/Drivers/STM32F4xx_HAL_Driver/Src\stm32f4xx_hal_flash.c **** { 
 556:C:/Users/073be/STM32Cube/Repository/STM32Cube_FW_F4_V1.23.0/Drivers/STM32F4xx_HAL_Driver/Src\stm32f4xx_hal_flash.c ****    return pFlash.ErrorCode;
 557:C:/Users/073be/STM32Cube/Repository/STM32Cube_FW_F4_V1.23.0/Drivers/STM32F4xx_HAL_Driver/Src\stm32f4xx_hal_flash.c **** }  
 558:C:/Users/073be/STM32Cube/Repository/STM32Cube_FW_F4_V1.23.0/Drivers/STM32F4xx_HAL_Driver/Src\stm32f4xx_hal_flash.c ****   
 559:C:/Users/073be/STM32Cube/Repository/STM32Cube_FW_F4_V1.23.0/Drivers/STM32F4xx_HAL_Driver/Src\stm32f4xx_hal_flash.c **** /**
 560:C:/Users/073be/STM32Cube/Repository/STM32Cube_FW_F4_V1.23.0/Drivers/STM32F4xx_HAL_Driver/Src\stm32f4xx_hal_flash.c ****   * @}
 561:C:/Users/073be/STM32Cube/Repository/STM32Cube_FW_F4_V1.23.0/Drivers/STM32F4xx_HAL_Driver/Src\stm32f4xx_hal_flash.c ****   */    
 562:C:/Users/073be/STM32Cube/Repository/STM32Cube_FW_F4_V1.23.0/Drivers/STM32F4xx_HAL_Driver/Src\stm32f4xx_hal_flash.c **** 
 563:C:/Users/073be/STM32Cube/Repository/STM32Cube_FW_F4_V1.23.0/Drivers/STM32F4xx_HAL_Driver/Src\stm32f4xx_hal_flash.c **** /**
 564:C:/Users/073be/STM32Cube/Repository/STM32Cube_FW_F4_V1.23.0/Drivers/STM32F4xx_HAL_Driver/Src\stm32f4xx_hal_flash.c ****   * @brief  Wait for a FLASH operation to complete.
 565:C:/Users/073be/STM32Cube/Repository/STM32Cube_FW_F4_V1.23.0/Drivers/STM32F4xx_HAL_Driver/Src\stm32f4xx_hal_flash.c ****   * @param  Timeout maximum flash operationtimeout
 566:C:/Users/073be/STM32Cube/Repository/STM32Cube_FW_F4_V1.23.0/Drivers/STM32F4xx_HAL_Driver/Src\stm32f4xx_hal_flash.c ****   * @retval HAL Status
 567:C:/Users/073be/STM32Cube/Repository/STM32Cube_FW_F4_V1.23.0/Drivers/STM32F4xx_HAL_Driver/Src\stm32f4xx_hal_flash.c ****   */
 568:C:/Users/073be/STM32Cube/Repository/STM32Cube_FW_F4_V1.23.0/Drivers/STM32F4xx_HAL_Driver/Src\stm32f4xx_hal_flash.c **** HAL_StatusTypeDef FLASH_WaitForLastOperation(uint32_t Timeout)
 569:C:/Users/073be/STM32Cube/Repository/STM32Cube_FW_F4_V1.23.0/Drivers/STM32F4xx_HAL_Driver/Src\stm32f4xx_hal_flash.c **** { 
 570:C:/Users/073be/STM32Cube/Repository/STM32Cube_FW_F4_V1.23.0/Drivers/STM32F4xx_HAL_Driver/Src\stm32f4xx_hal_flash.c ****   uint32_t tickstart = 0U;
 571:C:/Users/073be/STM32Cube/Repository/STM32Cube_FW_F4_V1.23.0/Drivers/STM32F4xx_HAL_Driver/Src\stm32f4xx_hal_flash.c ****   
 572:C:/Users/073be/STM32Cube/Repository/STM32Cube_FW_F4_V1.23.0/Drivers/STM32F4xx_HAL_Driver/Src\stm32f4xx_hal_flash.c ****   /* Clear Error Code */
 573:C:/Users/073be/STM32Cube/Repository/STM32Cube_FW_F4_V1.23.0/Drivers/STM32F4xx_HAL_Driver/Src\stm32f4xx_hal_flash.c ****   pFlash.ErrorCode = HAL_FLASH_ERROR_NONE;
 574:C:/Users/073be/STM32Cube/Repository/STM32Cube_FW_F4_V1.23.0/Drivers/STM32F4xx_HAL_Driver/Src\stm32f4xx_hal_flash.c ****   
 575:C:/Users/073be/STM32Cube/Repository/STM32Cube_FW_F4_V1.23.0/Drivers/STM32F4xx_HAL_Driver/Src\stm32f4xx_hal_flash.c ****   /* Wait for the FLASH operation to complete by polling on BUSY flag to be reset.
 576:C:/Users/073be/STM32Cube/Repository/STM32Cube_FW_F4_V1.23.0/Drivers/STM32F4xx_HAL_Driver/Src\stm32f4xx_hal_flash.c ****      Even if the FLASH operation fails, the BUSY flag will be reset and an error
 577:C:/Users/073be/STM32Cube/Repository/STM32Cube_FW_F4_V1.23.0/Drivers/STM32F4xx_HAL_Driver/Src\stm32f4xx_hal_flash.c ****      flag will be set */
 578:C:/Users/073be/STM32Cube/Repository/STM32Cube_FW_F4_V1.23.0/Drivers/STM32F4xx_HAL_Driver/Src\stm32f4xx_hal_flash.c ****   /* Get tick */
 579:C:/Users/073be/STM32Cube/Repository/STM32Cube_FW_F4_V1.23.0/Drivers/STM32F4xx_HAL_Driver/Src\stm32f4xx_hal_flash.c ****   tickstart = HAL_GetTick();
 580:C:/Users/073be/STM32Cube/Repository/STM32Cube_FW_F4_V1.23.0/Drivers/STM32F4xx_HAL_Driver/Src\stm32f4xx_hal_flash.c **** 
 581:C:/Users/073be/STM32Cube/Repository/STM32Cube_FW_F4_V1.23.0/Drivers/STM32F4xx_HAL_Driver/Src\stm32f4xx_hal_flash.c ****   while(__HAL_FLASH_GET_FLAG(FLASH_FLAG_BSY) != RESET) 
 582:C:/Users/073be/STM32Cube/Repository/STM32Cube_FW_F4_V1.23.0/Drivers/STM32F4xx_HAL_Driver/Src\stm32f4xx_hal_flash.c ****   { 
 583:C:/Users/073be/STM32Cube/Repository/STM32Cube_FW_F4_V1.23.0/Drivers/STM32F4xx_HAL_Driver/Src\stm32f4xx_hal_flash.c ****     if(Timeout != HAL_MAX_DELAY)
 584:C:/Users/073be/STM32Cube/Repository/STM32Cube_FW_F4_V1.23.0/Drivers/STM32F4xx_HAL_Driver/Src\stm32f4xx_hal_flash.c ****     {
 585:C:/Users/073be/STM32Cube/Repository/STM32Cube_FW_F4_V1.23.0/Drivers/STM32F4xx_HAL_Driver/Src\stm32f4xx_hal_flash.c ****       if((Timeout == 0U)||((HAL_GetTick() - tickstart ) > Timeout))
 586:C:/Users/073be/STM32Cube/Repository/STM32Cube_FW_F4_V1.23.0/Drivers/STM32F4xx_HAL_Driver/Src\stm32f4xx_hal_flash.c ****       {
 587:C:/Users/073be/STM32Cube/Repository/STM32Cube_FW_F4_V1.23.0/Drivers/STM32F4xx_HAL_Driver/Src\stm32f4xx_hal_flash.c ****         return HAL_TIMEOUT;
 588:C:/Users/073be/STM32Cube/Repository/STM32Cube_FW_F4_V1.23.0/Drivers/STM32F4xx_HAL_Driver/Src\stm32f4xx_hal_flash.c ****       }
 589:C:/Users/073be/STM32Cube/Repository/STM32Cube_FW_F4_V1.23.0/Drivers/STM32F4xx_HAL_Driver/Src\stm32f4xx_hal_flash.c ****     } 
 590:C:/Users/073be/STM32Cube/Repository/STM32Cube_FW_F4_V1.23.0/Drivers/STM32F4xx_HAL_Driver/Src\stm32f4xx_hal_flash.c ****   }
 591:C:/Users/073be/STM32Cube/Repository/STM32Cube_FW_F4_V1.23.0/Drivers/STM32F4xx_HAL_Driver/Src\stm32f4xx_hal_flash.c **** 
 592:C:/Users/073be/STM32Cube/Repository/STM32Cube_FW_F4_V1.23.0/Drivers/STM32F4xx_HAL_Driver/Src\stm32f4xx_hal_flash.c ****   /* Check FLASH End of Operation flag  */
 593:C:/Users/073be/STM32Cube/Repository/STM32Cube_FW_F4_V1.23.0/Drivers/STM32F4xx_HAL_Driver/Src\stm32f4xx_hal_flash.c ****   if (__HAL_FLASH_GET_FLAG(FLASH_FLAG_EOP) != RESET)
 594:C:/Users/073be/STM32Cube/Repository/STM32Cube_FW_F4_V1.23.0/Drivers/STM32F4xx_HAL_Driver/Src\stm32f4xx_hal_flash.c ****   {
 595:C:/Users/073be/STM32Cube/Repository/STM32Cube_FW_F4_V1.23.0/Drivers/STM32F4xx_HAL_Driver/Src\stm32f4xx_hal_flash.c ****     /* Clear FLASH End of Operation pending bit */
 596:C:/Users/073be/STM32Cube/Repository/STM32Cube_FW_F4_V1.23.0/Drivers/STM32F4xx_HAL_Driver/Src\stm32f4xx_hal_flash.c ****     __HAL_FLASH_CLEAR_FLAG(FLASH_FLAG_EOP);
 597:C:/Users/073be/STM32Cube/Repository/STM32Cube_FW_F4_V1.23.0/Drivers/STM32F4xx_HAL_Driver/Src\stm32f4xx_hal_flash.c ****   }
 598:C:/Users/073be/STM32Cube/Repository/STM32Cube_FW_F4_V1.23.0/Drivers/STM32F4xx_HAL_Driver/Src\stm32f4xx_hal_flash.c **** #if defined(FLASH_SR_RDERR)  
 599:C:/Users/073be/STM32Cube/Repository/STM32Cube_FW_F4_V1.23.0/Drivers/STM32F4xx_HAL_Driver/Src\stm32f4xx_hal_flash.c ****   if(__HAL_FLASH_GET_FLAG((FLASH_FLAG_OPERR | FLASH_FLAG_WRPERR | FLASH_FLAG_PGAERR | \
 600:C:/Users/073be/STM32Cube/Repository/STM32Cube_FW_F4_V1.23.0/Drivers/STM32F4xx_HAL_Driver/Src\stm32f4xx_hal_flash.c ****                            FLASH_FLAG_PGPERR | FLASH_FLAG_PGSERR | FLASH_FLAG_RDERR)) != RESET)
 601:C:/Users/073be/STM32Cube/Repository/STM32Cube_FW_F4_V1.23.0/Drivers/STM32F4xx_HAL_Driver/Src\stm32f4xx_hal_flash.c **** #else
 602:C:/Users/073be/STM32Cube/Repository/STM32Cube_FW_F4_V1.23.0/Drivers/STM32F4xx_HAL_Driver/Src\stm32f4xx_hal_flash.c ****   if(__HAL_FLASH_GET_FLAG((FLASH_FLAG_OPERR | FLASH_FLAG_WRPERR | FLASH_FLAG_PGAERR | \
ARM GAS  C:\Users\073be\AppData\Local\Temp\cceGulUG.s 			page 12


 603:C:/Users/073be/STM32Cube/Repository/STM32Cube_FW_F4_V1.23.0/Drivers/STM32F4xx_HAL_Driver/Src\stm32f4xx_hal_flash.c ****                            FLASH_FLAG_PGPERR | FLASH_FLAG_PGSERR)) != RESET)
 604:C:/Users/073be/STM32Cube/Repository/STM32Cube_FW_F4_V1.23.0/Drivers/STM32F4xx_HAL_Driver/Src\stm32f4xx_hal_flash.c **** #endif /* FLASH_SR_RDERR */
 605:C:/Users/073be/STM32Cube/Repository/STM32Cube_FW_F4_V1.23.0/Drivers/STM32F4xx_HAL_Driver/Src\stm32f4xx_hal_flash.c ****   {
 606:C:/Users/073be/STM32Cube/Repository/STM32Cube_FW_F4_V1.23.0/Drivers/STM32F4xx_HAL_Driver/Src\stm32f4xx_hal_flash.c ****     /*Save the error code*/
 607:C:/Users/073be/STM32Cube/Repository/STM32Cube_FW_F4_V1.23.0/Drivers/STM32F4xx_HAL_Driver/Src\stm32f4xx_hal_flash.c ****     FLASH_SetErrorCode();
 608:C:/Users/073be/STM32Cube/Repository/STM32Cube_FW_F4_V1.23.0/Drivers/STM32F4xx_HAL_Driver/Src\stm32f4xx_hal_flash.c ****     return HAL_ERROR;
 609:C:/Users/073be/STM32Cube/Repository/STM32Cube_FW_F4_V1.23.0/Drivers/STM32F4xx_HAL_Driver/Src\stm32f4xx_hal_flash.c ****   }
 610:C:/Users/073be/STM32Cube/Repository/STM32Cube_FW_F4_V1.23.0/Drivers/STM32F4xx_HAL_Driver/Src\stm32f4xx_hal_flash.c **** 
 611:C:/Users/073be/STM32Cube/Repository/STM32Cube_FW_F4_V1.23.0/Drivers/STM32F4xx_HAL_Driver/Src\stm32f4xx_hal_flash.c ****   /* If there is no error flag set */
 612:C:/Users/073be/STM32Cube/Repository/STM32Cube_FW_F4_V1.23.0/Drivers/STM32F4xx_HAL_Driver/Src\stm32f4xx_hal_flash.c ****   return HAL_OK;
 613:C:/Users/073be/STM32Cube/Repository/STM32Cube_FW_F4_V1.23.0/Drivers/STM32F4xx_HAL_Driver/Src\stm32f4xx_hal_flash.c ****   
 614:C:/Users/073be/STM32Cube/Repository/STM32Cube_FW_F4_V1.23.0/Drivers/STM32F4xx_HAL_Driver/Src\stm32f4xx_hal_flash.c **** }  
 615:C:/Users/073be/STM32Cube/Repository/STM32Cube_FW_F4_V1.23.0/Drivers/STM32F4xx_HAL_Driver/Src\stm32f4xx_hal_flash.c **** 
 616:C:/Users/073be/STM32Cube/Repository/STM32Cube_FW_F4_V1.23.0/Drivers/STM32F4xx_HAL_Driver/Src\stm32f4xx_hal_flash.c **** /**
 617:C:/Users/073be/STM32Cube/Repository/STM32Cube_FW_F4_V1.23.0/Drivers/STM32F4xx_HAL_Driver/Src\stm32f4xx_hal_flash.c ****   * @brief  Program a double word (64-bit) at a specified address.
 618:C:/Users/073be/STM32Cube/Repository/STM32Cube_FW_F4_V1.23.0/Drivers/STM32F4xx_HAL_Driver/Src\stm32f4xx_hal_flash.c ****   * @note   This function must be used when the device voltage range is from
 619:C:/Users/073be/STM32Cube/Repository/STM32Cube_FW_F4_V1.23.0/Drivers/STM32F4xx_HAL_Driver/Src\stm32f4xx_hal_flash.c ****   *         2.7V to 3.6V and Vpp in the range 7V to 9V.
 620:C:/Users/073be/STM32Cube/Repository/STM32Cube_FW_F4_V1.23.0/Drivers/STM32F4xx_HAL_Driver/Src\stm32f4xx_hal_flash.c ****   *
 621:C:/Users/073be/STM32Cube/Repository/STM32Cube_FW_F4_V1.23.0/Drivers/STM32F4xx_HAL_Driver/Src\stm32f4xx_hal_flash.c ****   * @note   If an erase and a program operations are requested simultaneously,    
 622:C:/Users/073be/STM32Cube/Repository/STM32Cube_FW_F4_V1.23.0/Drivers/STM32F4xx_HAL_Driver/Src\stm32f4xx_hal_flash.c ****   *         the erase operation is performed before the program one.
 623:C:/Users/073be/STM32Cube/Repository/STM32Cube_FW_F4_V1.23.0/Drivers/STM32F4xx_HAL_Driver/Src\stm32f4xx_hal_flash.c ****   *  
 624:C:/Users/073be/STM32Cube/Repository/STM32Cube_FW_F4_V1.23.0/Drivers/STM32F4xx_HAL_Driver/Src\stm32f4xx_hal_flash.c ****   * @param  Address specifies the address to be programmed.
 625:C:/Users/073be/STM32Cube/Repository/STM32Cube_FW_F4_V1.23.0/Drivers/STM32F4xx_HAL_Driver/Src\stm32f4xx_hal_flash.c ****   * @param  Data specifies the data to be programmed.
 626:C:/Users/073be/STM32Cube/Repository/STM32Cube_FW_F4_V1.23.0/Drivers/STM32F4xx_HAL_Driver/Src\stm32f4xx_hal_flash.c ****   * @retval None
 627:C:/Users/073be/STM32Cube/Repository/STM32Cube_FW_F4_V1.23.0/Drivers/STM32F4xx_HAL_Driver/Src\stm32f4xx_hal_flash.c ****   */
 628:C:/Users/073be/STM32Cube/Repository/STM32Cube_FW_F4_V1.23.0/Drivers/STM32F4xx_HAL_Driver/Src\stm32f4xx_hal_flash.c **** static void FLASH_Program_DoubleWord(uint32_t Address, uint64_t Data)
 629:C:/Users/073be/STM32Cube/Repository/STM32Cube_FW_F4_V1.23.0/Drivers/STM32F4xx_HAL_Driver/Src\stm32f4xx_hal_flash.c **** {
 630:C:/Users/073be/STM32Cube/Repository/STM32Cube_FW_F4_V1.23.0/Drivers/STM32F4xx_HAL_Driver/Src\stm32f4xx_hal_flash.c ****   /* Check the parameters */
 631:C:/Users/073be/STM32Cube/Repository/STM32Cube_FW_F4_V1.23.0/Drivers/STM32F4xx_HAL_Driver/Src\stm32f4xx_hal_flash.c ****   assert_param(IS_FLASH_ADDRESS(Address));
 632:C:/Users/073be/STM32Cube/Repository/STM32Cube_FW_F4_V1.23.0/Drivers/STM32F4xx_HAL_Driver/Src\stm32f4xx_hal_flash.c ****   
 633:C:/Users/073be/STM32Cube/Repository/STM32Cube_FW_F4_V1.23.0/Drivers/STM32F4xx_HAL_Driver/Src\stm32f4xx_hal_flash.c ****   /* If the previous operation is completed, proceed to program the new data */
 634:C:/Users/073be/STM32Cube/Repository/STM32Cube_FW_F4_V1.23.0/Drivers/STM32F4xx_HAL_Driver/Src\stm32f4xx_hal_flash.c ****   CLEAR_BIT(FLASH->CR, FLASH_CR_PSIZE);
 635:C:/Users/073be/STM32Cube/Repository/STM32Cube_FW_F4_V1.23.0/Drivers/STM32F4xx_HAL_Driver/Src\stm32f4xx_hal_flash.c ****   FLASH->CR |= FLASH_PSIZE_DOUBLE_WORD;
 636:C:/Users/073be/STM32Cube/Repository/STM32Cube_FW_F4_V1.23.0/Drivers/STM32F4xx_HAL_Driver/Src\stm32f4xx_hal_flash.c ****   FLASH->CR |= FLASH_CR_PG;
 637:C:/Users/073be/STM32Cube/Repository/STM32Cube_FW_F4_V1.23.0/Drivers/STM32F4xx_HAL_Driver/Src\stm32f4xx_hal_flash.c **** 
 638:C:/Users/073be/STM32Cube/Repository/STM32Cube_FW_F4_V1.23.0/Drivers/STM32F4xx_HAL_Driver/Src\stm32f4xx_hal_flash.c ****   /* Program the double-word */
 639:C:/Users/073be/STM32Cube/Repository/STM32Cube_FW_F4_V1.23.0/Drivers/STM32F4xx_HAL_Driver/Src\stm32f4xx_hal_flash.c ****   *(__IO uint32_t*)Address = (uint32_t)Data;
 640:C:/Users/073be/STM32Cube/Repository/STM32Cube_FW_F4_V1.23.0/Drivers/STM32F4xx_HAL_Driver/Src\stm32f4xx_hal_flash.c ****   *(__IO uint32_t*)(Address+4) = (uint32_t)(Data >> 32);
 641:C:/Users/073be/STM32Cube/Repository/STM32Cube_FW_F4_V1.23.0/Drivers/STM32F4xx_HAL_Driver/Src\stm32f4xx_hal_flash.c **** }
 642:C:/Users/073be/STM32Cube/Repository/STM32Cube_FW_F4_V1.23.0/Drivers/STM32F4xx_HAL_Driver/Src\stm32f4xx_hal_flash.c **** 
 643:C:/Users/073be/STM32Cube/Repository/STM32Cube_FW_F4_V1.23.0/Drivers/STM32F4xx_HAL_Driver/Src\stm32f4xx_hal_flash.c **** 
 644:C:/Users/073be/STM32Cube/Repository/STM32Cube_FW_F4_V1.23.0/Drivers/STM32F4xx_HAL_Driver/Src\stm32f4xx_hal_flash.c **** /**
 645:C:/Users/073be/STM32Cube/Repository/STM32Cube_FW_F4_V1.23.0/Drivers/STM32F4xx_HAL_Driver/Src\stm32f4xx_hal_flash.c ****   * @brief  Program word (32-bit) at a specified address.
 646:C:/Users/073be/STM32Cube/Repository/STM32Cube_FW_F4_V1.23.0/Drivers/STM32F4xx_HAL_Driver/Src\stm32f4xx_hal_flash.c ****   * @note   This function must be used when the device voltage range is from
 647:C:/Users/073be/STM32Cube/Repository/STM32Cube_FW_F4_V1.23.0/Drivers/STM32F4xx_HAL_Driver/Src\stm32f4xx_hal_flash.c ****   *         2.7V to 3.6V.
 648:C:/Users/073be/STM32Cube/Repository/STM32Cube_FW_F4_V1.23.0/Drivers/STM32F4xx_HAL_Driver/Src\stm32f4xx_hal_flash.c ****   *
 649:C:/Users/073be/STM32Cube/Repository/STM32Cube_FW_F4_V1.23.0/Drivers/STM32F4xx_HAL_Driver/Src\stm32f4xx_hal_flash.c ****   * @note   If an erase and a program operations are requested simultaneously,    
 650:C:/Users/073be/STM32Cube/Repository/STM32Cube_FW_F4_V1.23.0/Drivers/STM32F4xx_HAL_Driver/Src\stm32f4xx_hal_flash.c ****   *         the erase operation is performed before the program one.
 651:C:/Users/073be/STM32Cube/Repository/STM32Cube_FW_F4_V1.23.0/Drivers/STM32F4xx_HAL_Driver/Src\stm32f4xx_hal_flash.c ****   *  
 652:C:/Users/073be/STM32Cube/Repository/STM32Cube_FW_F4_V1.23.0/Drivers/STM32F4xx_HAL_Driver/Src\stm32f4xx_hal_flash.c ****   * @param  Address specifies the address to be programmed.
 653:C:/Users/073be/STM32Cube/Repository/STM32Cube_FW_F4_V1.23.0/Drivers/STM32F4xx_HAL_Driver/Src\stm32f4xx_hal_flash.c ****   * @param  Data specifies the data to be programmed.
 654:C:/Users/073be/STM32Cube/Repository/STM32Cube_FW_F4_V1.23.0/Drivers/STM32F4xx_HAL_Driver/Src\stm32f4xx_hal_flash.c ****   * @retval None
 655:C:/Users/073be/STM32Cube/Repository/STM32Cube_FW_F4_V1.23.0/Drivers/STM32F4xx_HAL_Driver/Src\stm32f4xx_hal_flash.c ****   */
 656:C:/Users/073be/STM32Cube/Repository/STM32Cube_FW_F4_V1.23.0/Drivers/STM32F4xx_HAL_Driver/Src\stm32f4xx_hal_flash.c **** static void FLASH_Program_Word(uint32_t Address, uint32_t Data)
 657:C:/Users/073be/STM32Cube/Repository/STM32Cube_FW_F4_V1.23.0/Drivers/STM32F4xx_HAL_Driver/Src\stm32f4xx_hal_flash.c **** {
 658:C:/Users/073be/STM32Cube/Repository/STM32Cube_FW_F4_V1.23.0/Drivers/STM32F4xx_HAL_Driver/Src\stm32f4xx_hal_flash.c ****   /* Check the parameters */
 659:C:/Users/073be/STM32Cube/Repository/STM32Cube_FW_F4_V1.23.0/Drivers/STM32F4xx_HAL_Driver/Src\stm32f4xx_hal_flash.c ****   assert_param(IS_FLASH_ADDRESS(Address));
ARM GAS  C:\Users\073be\AppData\Local\Temp\cceGulUG.s 			page 13


 660:C:/Users/073be/STM32Cube/Repository/STM32Cube_FW_F4_V1.23.0/Drivers/STM32F4xx_HAL_Driver/Src\stm32f4xx_hal_flash.c ****   
 661:C:/Users/073be/STM32Cube/Repository/STM32Cube_FW_F4_V1.23.0/Drivers/STM32F4xx_HAL_Driver/Src\stm32f4xx_hal_flash.c ****   /* If the previous operation is completed, proceed to program the new data */
 662:C:/Users/073be/STM32Cube/Repository/STM32Cube_FW_F4_V1.23.0/Drivers/STM32F4xx_HAL_Driver/Src\stm32f4xx_hal_flash.c ****   CLEAR_BIT(FLASH->CR, FLASH_CR_PSIZE);
 663:C:/Users/073be/STM32Cube/Repository/STM32Cube_FW_F4_V1.23.0/Drivers/STM32F4xx_HAL_Driver/Src\stm32f4xx_hal_flash.c ****   FLASH->CR |= FLASH_PSIZE_WORD;
 664:C:/Users/073be/STM32Cube/Repository/STM32Cube_FW_F4_V1.23.0/Drivers/STM32F4xx_HAL_Driver/Src\stm32f4xx_hal_flash.c ****   FLASH->CR |= FLASH_CR_PG;
 665:C:/Users/073be/STM32Cube/Repository/STM32Cube_FW_F4_V1.23.0/Drivers/STM32F4xx_HAL_Driver/Src\stm32f4xx_hal_flash.c **** 
 666:C:/Users/073be/STM32Cube/Repository/STM32Cube_FW_F4_V1.23.0/Drivers/STM32F4xx_HAL_Driver/Src\stm32f4xx_hal_flash.c ****   *(__IO uint32_t*)Address = Data;
 667:C:/Users/073be/STM32Cube/Repository/STM32Cube_FW_F4_V1.23.0/Drivers/STM32F4xx_HAL_Driver/Src\stm32f4xx_hal_flash.c **** }
 668:C:/Users/073be/STM32Cube/Repository/STM32Cube_FW_F4_V1.23.0/Drivers/STM32F4xx_HAL_Driver/Src\stm32f4xx_hal_flash.c **** 
 669:C:/Users/073be/STM32Cube/Repository/STM32Cube_FW_F4_V1.23.0/Drivers/STM32F4xx_HAL_Driver/Src\stm32f4xx_hal_flash.c **** /**
 670:C:/Users/073be/STM32Cube/Repository/STM32Cube_FW_F4_V1.23.0/Drivers/STM32F4xx_HAL_Driver/Src\stm32f4xx_hal_flash.c ****   * @brief  Program a half-word (16-bit) at a specified address.
 671:C:/Users/073be/STM32Cube/Repository/STM32Cube_FW_F4_V1.23.0/Drivers/STM32F4xx_HAL_Driver/Src\stm32f4xx_hal_flash.c ****   * @note   This function must be used when the device voltage range is from
 672:C:/Users/073be/STM32Cube/Repository/STM32Cube_FW_F4_V1.23.0/Drivers/STM32F4xx_HAL_Driver/Src\stm32f4xx_hal_flash.c ****   *         2.1V to 3.6V.
 673:C:/Users/073be/STM32Cube/Repository/STM32Cube_FW_F4_V1.23.0/Drivers/STM32F4xx_HAL_Driver/Src\stm32f4xx_hal_flash.c ****   *
 674:C:/Users/073be/STM32Cube/Repository/STM32Cube_FW_F4_V1.23.0/Drivers/STM32F4xx_HAL_Driver/Src\stm32f4xx_hal_flash.c ****   * @note   If an erase and a program operations are requested simultaneously,    
 675:C:/Users/073be/STM32Cube/Repository/STM32Cube_FW_F4_V1.23.0/Drivers/STM32F4xx_HAL_Driver/Src\stm32f4xx_hal_flash.c ****   *         the erase operation is performed before the program one.
 676:C:/Users/073be/STM32Cube/Repository/STM32Cube_FW_F4_V1.23.0/Drivers/STM32F4xx_HAL_Driver/Src\stm32f4xx_hal_flash.c ****   *  
 677:C:/Users/073be/STM32Cube/Repository/STM32Cube_FW_F4_V1.23.0/Drivers/STM32F4xx_HAL_Driver/Src\stm32f4xx_hal_flash.c ****   * @param  Address specifies the address to be programmed.
 678:C:/Users/073be/STM32Cube/Repository/STM32Cube_FW_F4_V1.23.0/Drivers/STM32F4xx_HAL_Driver/Src\stm32f4xx_hal_flash.c ****   * @param  Data specifies the data to be programmed.
 679:C:/Users/073be/STM32Cube/Repository/STM32Cube_FW_F4_V1.23.0/Drivers/STM32F4xx_HAL_Driver/Src\stm32f4xx_hal_flash.c ****   * @retval None
 680:C:/Users/073be/STM32Cube/Repository/STM32Cube_FW_F4_V1.23.0/Drivers/STM32F4xx_HAL_Driver/Src\stm32f4xx_hal_flash.c ****   */
 681:C:/Users/073be/STM32Cube/Repository/STM32Cube_FW_F4_V1.23.0/Drivers/STM32F4xx_HAL_Driver/Src\stm32f4xx_hal_flash.c **** static void FLASH_Program_HalfWord(uint32_t Address, uint16_t Data)
 682:C:/Users/073be/STM32Cube/Repository/STM32Cube_FW_F4_V1.23.0/Drivers/STM32F4xx_HAL_Driver/Src\stm32f4xx_hal_flash.c **** {
 683:C:/Users/073be/STM32Cube/Repository/STM32Cube_FW_F4_V1.23.0/Drivers/STM32F4xx_HAL_Driver/Src\stm32f4xx_hal_flash.c ****   /* Check the parameters */
 684:C:/Users/073be/STM32Cube/Repository/STM32Cube_FW_F4_V1.23.0/Drivers/STM32F4xx_HAL_Driver/Src\stm32f4xx_hal_flash.c ****   assert_param(IS_FLASH_ADDRESS(Address));
 685:C:/Users/073be/STM32Cube/Repository/STM32Cube_FW_F4_V1.23.0/Drivers/STM32F4xx_HAL_Driver/Src\stm32f4xx_hal_flash.c ****   
 686:C:/Users/073be/STM32Cube/Repository/STM32Cube_FW_F4_V1.23.0/Drivers/STM32F4xx_HAL_Driver/Src\stm32f4xx_hal_flash.c ****   /* If the previous operation is completed, proceed to program the new data */
 687:C:/Users/073be/STM32Cube/Repository/STM32Cube_FW_F4_V1.23.0/Drivers/STM32F4xx_HAL_Driver/Src\stm32f4xx_hal_flash.c ****   CLEAR_BIT(FLASH->CR, FLASH_CR_PSIZE);
 688:C:/Users/073be/STM32Cube/Repository/STM32Cube_FW_F4_V1.23.0/Drivers/STM32F4xx_HAL_Driver/Src\stm32f4xx_hal_flash.c ****   FLASH->CR |= FLASH_PSIZE_HALF_WORD;
 689:C:/Users/073be/STM32Cube/Repository/STM32Cube_FW_F4_V1.23.0/Drivers/STM32F4xx_HAL_Driver/Src\stm32f4xx_hal_flash.c ****   FLASH->CR |= FLASH_CR_PG;
 690:C:/Users/073be/STM32Cube/Repository/STM32Cube_FW_F4_V1.23.0/Drivers/STM32F4xx_HAL_Driver/Src\stm32f4xx_hal_flash.c **** 
 691:C:/Users/073be/STM32Cube/Repository/STM32Cube_FW_F4_V1.23.0/Drivers/STM32F4xx_HAL_Driver/Src\stm32f4xx_hal_flash.c ****   *(__IO uint16_t*)Address = Data;
 692:C:/Users/073be/STM32Cube/Repository/STM32Cube_FW_F4_V1.23.0/Drivers/STM32F4xx_HAL_Driver/Src\stm32f4xx_hal_flash.c **** }
 693:C:/Users/073be/STM32Cube/Repository/STM32Cube_FW_F4_V1.23.0/Drivers/STM32F4xx_HAL_Driver/Src\stm32f4xx_hal_flash.c **** 
 694:C:/Users/073be/STM32Cube/Repository/STM32Cube_FW_F4_V1.23.0/Drivers/STM32F4xx_HAL_Driver/Src\stm32f4xx_hal_flash.c **** /**
 695:C:/Users/073be/STM32Cube/Repository/STM32Cube_FW_F4_V1.23.0/Drivers/STM32F4xx_HAL_Driver/Src\stm32f4xx_hal_flash.c ****   * @brief  Program byte (8-bit) at a specified address.
 696:C:/Users/073be/STM32Cube/Repository/STM32Cube_FW_F4_V1.23.0/Drivers/STM32F4xx_HAL_Driver/Src\stm32f4xx_hal_flash.c ****   * @note   This function must be used when the device voltage range is from
 697:C:/Users/073be/STM32Cube/Repository/STM32Cube_FW_F4_V1.23.0/Drivers/STM32F4xx_HAL_Driver/Src\stm32f4xx_hal_flash.c ****   *         1.8V to 3.6V.
 698:C:/Users/073be/STM32Cube/Repository/STM32Cube_FW_F4_V1.23.0/Drivers/STM32F4xx_HAL_Driver/Src\stm32f4xx_hal_flash.c ****   *
 699:C:/Users/073be/STM32Cube/Repository/STM32Cube_FW_F4_V1.23.0/Drivers/STM32F4xx_HAL_Driver/Src\stm32f4xx_hal_flash.c ****   * @note   If an erase and a program operations are requested simultaneously,    
 700:C:/Users/073be/STM32Cube/Repository/STM32Cube_FW_F4_V1.23.0/Drivers/STM32F4xx_HAL_Driver/Src\stm32f4xx_hal_flash.c ****   *         the erase operation is performed before the program one.
 701:C:/Users/073be/STM32Cube/Repository/STM32Cube_FW_F4_V1.23.0/Drivers/STM32F4xx_HAL_Driver/Src\stm32f4xx_hal_flash.c ****   *  
 702:C:/Users/073be/STM32Cube/Repository/STM32Cube_FW_F4_V1.23.0/Drivers/STM32F4xx_HAL_Driver/Src\stm32f4xx_hal_flash.c ****   * @param  Address specifies the address to be programmed.
 703:C:/Users/073be/STM32Cube/Repository/STM32Cube_FW_F4_V1.23.0/Drivers/STM32F4xx_HAL_Driver/Src\stm32f4xx_hal_flash.c ****   * @param  Data specifies the data to be programmed.
 704:C:/Users/073be/STM32Cube/Repository/STM32Cube_FW_F4_V1.23.0/Drivers/STM32F4xx_HAL_Driver/Src\stm32f4xx_hal_flash.c ****   * @retval None
 705:C:/Users/073be/STM32Cube/Repository/STM32Cube_FW_F4_V1.23.0/Drivers/STM32F4xx_HAL_Driver/Src\stm32f4xx_hal_flash.c ****   */
 706:C:/Users/073be/STM32Cube/Repository/STM32Cube_FW_F4_V1.23.0/Drivers/STM32F4xx_HAL_Driver/Src\stm32f4xx_hal_flash.c **** static void FLASH_Program_Byte(uint32_t Address, uint8_t Data)
 707:C:/Users/073be/STM32Cube/Repository/STM32Cube_FW_F4_V1.23.0/Drivers/STM32F4xx_HAL_Driver/Src\stm32f4xx_hal_flash.c **** {
 708:C:/Users/073be/STM32Cube/Repository/STM32Cube_FW_F4_V1.23.0/Drivers/STM32F4xx_HAL_Driver/Src\stm32f4xx_hal_flash.c ****   /* Check the parameters */
 709:C:/Users/073be/STM32Cube/Repository/STM32Cube_FW_F4_V1.23.0/Drivers/STM32F4xx_HAL_Driver/Src\stm32f4xx_hal_flash.c ****   assert_param(IS_FLASH_ADDRESS(Address));
 710:C:/Users/073be/STM32Cube/Repository/STM32Cube_FW_F4_V1.23.0/Drivers/STM32F4xx_HAL_Driver/Src\stm32f4xx_hal_flash.c ****   
 711:C:/Users/073be/STM32Cube/Repository/STM32Cube_FW_F4_V1.23.0/Drivers/STM32F4xx_HAL_Driver/Src\stm32f4xx_hal_flash.c ****   /* If the previous operation is completed, proceed to program the new data */
 712:C:/Users/073be/STM32Cube/Repository/STM32Cube_FW_F4_V1.23.0/Drivers/STM32F4xx_HAL_Driver/Src\stm32f4xx_hal_flash.c ****   CLEAR_BIT(FLASH->CR, FLASH_CR_PSIZE);
 713:C:/Users/073be/STM32Cube/Repository/STM32Cube_FW_F4_V1.23.0/Drivers/STM32F4xx_HAL_Driver/Src\stm32f4xx_hal_flash.c ****   FLASH->CR |= FLASH_PSIZE_BYTE;
 714:C:/Users/073be/STM32Cube/Repository/STM32Cube_FW_F4_V1.23.0/Drivers/STM32F4xx_HAL_Driver/Src\stm32f4xx_hal_flash.c ****   FLASH->CR |= FLASH_CR_PG;
 715:C:/Users/073be/STM32Cube/Repository/STM32Cube_FW_F4_V1.23.0/Drivers/STM32F4xx_HAL_Driver/Src\stm32f4xx_hal_flash.c **** 
 716:C:/Users/073be/STM32Cube/Repository/STM32Cube_FW_F4_V1.23.0/Drivers/STM32F4xx_HAL_Driver/Src\stm32f4xx_hal_flash.c ****   *(__IO uint8_t*)Address = Data;
ARM GAS  C:\Users\073be\AppData\Local\Temp\cceGulUG.s 			page 14


 717:C:/Users/073be/STM32Cube/Repository/STM32Cube_FW_F4_V1.23.0/Drivers/STM32F4xx_HAL_Driver/Src\stm32f4xx_hal_flash.c **** }
 718:C:/Users/073be/STM32Cube/Repository/STM32Cube_FW_F4_V1.23.0/Drivers/STM32F4xx_HAL_Driver/Src\stm32f4xx_hal_flash.c **** 
 719:C:/Users/073be/STM32Cube/Repository/STM32Cube_FW_F4_V1.23.0/Drivers/STM32F4xx_HAL_Driver/Src\stm32f4xx_hal_flash.c **** /**
 720:C:/Users/073be/STM32Cube/Repository/STM32Cube_FW_F4_V1.23.0/Drivers/STM32F4xx_HAL_Driver/Src\stm32f4xx_hal_flash.c ****   * @brief  Set the specific FLASH error flag.
 721:C:/Users/073be/STM32Cube/Repository/STM32Cube_FW_F4_V1.23.0/Drivers/STM32F4xx_HAL_Driver/Src\stm32f4xx_hal_flash.c ****   * @retval None
 722:C:/Users/073be/STM32Cube/Repository/STM32Cube_FW_F4_V1.23.0/Drivers/STM32F4xx_HAL_Driver/Src\stm32f4xx_hal_flash.c ****   */
 723:C:/Users/073be/STM32Cube/Repository/STM32Cube_FW_F4_V1.23.0/Drivers/STM32F4xx_HAL_Driver/Src\stm32f4xx_hal_flash.c **** static void FLASH_SetErrorCode(void)
 724:C:/Users/073be/STM32Cube/Repository/STM32Cube_FW_F4_V1.23.0/Drivers/STM32F4xx_HAL_Driver/Src\stm32f4xx_hal_flash.c **** { 
  27              		.loc 1 724 0
  28              		.cfi_startproc
  29              		@ args = 0, pretend = 0, frame = 0
  30              		@ frame_needed = 0, uses_anonymous_args = 0
  31              		@ link register save eliminated.
 725:C:/Users/073be/STM32Cube/Repository/STM32Cube_FW_F4_V1.23.0/Drivers/STM32F4xx_HAL_Driver/Src\stm32f4xx_hal_flash.c ****   if(__HAL_FLASH_GET_FLAG(FLASH_FLAG_WRPERR) != RESET)
  32              		.loc 1 725 0
  33 0000 204B     		ldr	r3, .L7
  34 0002 DB68     		ldr	r3, [r3, #12]
  35 0004 13F0100F 		tst	r3, #16
  36 0008 07D0     		beq	.L2
 726:C:/Users/073be/STM32Cube/Repository/STM32Cube_FW_F4_V1.23.0/Drivers/STM32F4xx_HAL_Driver/Src\stm32f4xx_hal_flash.c ****   {
 727:C:/Users/073be/STM32Cube/Repository/STM32Cube_FW_F4_V1.23.0/Drivers/STM32F4xx_HAL_Driver/Src\stm32f4xx_hal_flash.c ****    pFlash.ErrorCode |= HAL_FLASH_ERROR_WRP;
  37              		.loc 1 727 0
  38 000a 1F4A     		ldr	r2, .L7+4
  39 000c D369     		ldr	r3, [r2, #28]
  40 000e 43F01003 		orr	r3, r3, #16
  41 0012 D361     		str	r3, [r2, #28]
 728:C:/Users/073be/STM32Cube/Repository/STM32Cube_FW_F4_V1.23.0/Drivers/STM32F4xx_HAL_Driver/Src\stm32f4xx_hal_flash.c ****    
 729:C:/Users/073be/STM32Cube/Repository/STM32Cube_FW_F4_V1.23.0/Drivers/STM32F4xx_HAL_Driver/Src\stm32f4xx_hal_flash.c ****    /* Clear FLASH write protection error pending bit */
 730:C:/Users/073be/STM32Cube/Repository/STM32Cube_FW_F4_V1.23.0/Drivers/STM32F4xx_HAL_Driver/Src\stm32f4xx_hal_flash.c ****    __HAL_FLASH_CLEAR_FLAG(FLASH_FLAG_WRPERR);
  42              		.loc 1 730 0
  43 0014 1B4B     		ldr	r3, .L7
  44 0016 1022     		movs	r2, #16
  45 0018 DA60     		str	r2, [r3, #12]
  46              	.L2:
 731:C:/Users/073be/STM32Cube/Repository/STM32Cube_FW_F4_V1.23.0/Drivers/STM32F4xx_HAL_Driver/Src\stm32f4xx_hal_flash.c ****   }
 732:C:/Users/073be/STM32Cube/Repository/STM32Cube_FW_F4_V1.23.0/Drivers/STM32F4xx_HAL_Driver/Src\stm32f4xx_hal_flash.c ****   
 733:C:/Users/073be/STM32Cube/Repository/STM32Cube_FW_F4_V1.23.0/Drivers/STM32F4xx_HAL_Driver/Src\stm32f4xx_hal_flash.c ****   if(__HAL_FLASH_GET_FLAG(FLASH_FLAG_PGAERR) != RESET)
  47              		.loc 1 733 0
  48 001a 1A4B     		ldr	r3, .L7
  49 001c DB68     		ldr	r3, [r3, #12]
  50 001e 13F0200F 		tst	r3, #32
  51 0022 07D0     		beq	.L3
 734:C:/Users/073be/STM32Cube/Repository/STM32Cube_FW_F4_V1.23.0/Drivers/STM32F4xx_HAL_Driver/Src\stm32f4xx_hal_flash.c ****   {
 735:C:/Users/073be/STM32Cube/Repository/STM32Cube_FW_F4_V1.23.0/Drivers/STM32F4xx_HAL_Driver/Src\stm32f4xx_hal_flash.c ****    pFlash.ErrorCode |= HAL_FLASH_ERROR_PGA;
  52              		.loc 1 735 0
  53 0024 184A     		ldr	r2, .L7+4
  54 0026 D369     		ldr	r3, [r2, #28]
  55 0028 43F00803 		orr	r3, r3, #8
  56 002c D361     		str	r3, [r2, #28]
 736:C:/Users/073be/STM32Cube/Repository/STM32Cube_FW_F4_V1.23.0/Drivers/STM32F4xx_HAL_Driver/Src\stm32f4xx_hal_flash.c ****    
 737:C:/Users/073be/STM32Cube/Repository/STM32Cube_FW_F4_V1.23.0/Drivers/STM32F4xx_HAL_Driver/Src\stm32f4xx_hal_flash.c ****    /* Clear FLASH Programming alignment error pending bit */
 738:C:/Users/073be/STM32Cube/Repository/STM32Cube_FW_F4_V1.23.0/Drivers/STM32F4xx_HAL_Driver/Src\stm32f4xx_hal_flash.c ****    __HAL_FLASH_CLEAR_FLAG(FLASH_FLAG_PGAERR);
  57              		.loc 1 738 0
  58 002e 154B     		ldr	r3, .L7
  59 0030 2022     		movs	r2, #32
  60 0032 DA60     		str	r2, [r3, #12]
  61              	.L3:
ARM GAS  C:\Users\073be\AppData\Local\Temp\cceGulUG.s 			page 15


 739:C:/Users/073be/STM32Cube/Repository/STM32Cube_FW_F4_V1.23.0/Drivers/STM32F4xx_HAL_Driver/Src\stm32f4xx_hal_flash.c ****   }
 740:C:/Users/073be/STM32Cube/Repository/STM32Cube_FW_F4_V1.23.0/Drivers/STM32F4xx_HAL_Driver/Src\stm32f4xx_hal_flash.c ****   
 741:C:/Users/073be/STM32Cube/Repository/STM32Cube_FW_F4_V1.23.0/Drivers/STM32F4xx_HAL_Driver/Src\stm32f4xx_hal_flash.c ****   if(__HAL_FLASH_GET_FLAG(FLASH_FLAG_PGPERR) != RESET)
  62              		.loc 1 741 0
  63 0034 134B     		ldr	r3, .L7
  64 0036 DB68     		ldr	r3, [r3, #12]
  65 0038 13F0400F 		tst	r3, #64
  66 003c 07D0     		beq	.L4
 742:C:/Users/073be/STM32Cube/Repository/STM32Cube_FW_F4_V1.23.0/Drivers/STM32F4xx_HAL_Driver/Src\stm32f4xx_hal_flash.c ****   {
 743:C:/Users/073be/STM32Cube/Repository/STM32Cube_FW_F4_V1.23.0/Drivers/STM32F4xx_HAL_Driver/Src\stm32f4xx_hal_flash.c ****     pFlash.ErrorCode |= HAL_FLASH_ERROR_PGP;
  67              		.loc 1 743 0
  68 003e 124A     		ldr	r2, .L7+4
  69 0040 D369     		ldr	r3, [r2, #28]
  70 0042 43F00403 		orr	r3, r3, #4
  71 0046 D361     		str	r3, [r2, #28]
 744:C:/Users/073be/STM32Cube/Repository/STM32Cube_FW_F4_V1.23.0/Drivers/STM32F4xx_HAL_Driver/Src\stm32f4xx_hal_flash.c ****     
 745:C:/Users/073be/STM32Cube/Repository/STM32Cube_FW_F4_V1.23.0/Drivers/STM32F4xx_HAL_Driver/Src\stm32f4xx_hal_flash.c ****     /* Clear FLASH Programming parallelism error pending bit */
 746:C:/Users/073be/STM32Cube/Repository/STM32Cube_FW_F4_V1.23.0/Drivers/STM32F4xx_HAL_Driver/Src\stm32f4xx_hal_flash.c ****     __HAL_FLASH_CLEAR_FLAG(FLASH_FLAG_PGPERR);
  72              		.loc 1 746 0
  73 0048 0E4B     		ldr	r3, .L7
  74 004a 4022     		movs	r2, #64
  75 004c DA60     		str	r2, [r3, #12]
  76              	.L4:
 747:C:/Users/073be/STM32Cube/Repository/STM32Cube_FW_F4_V1.23.0/Drivers/STM32F4xx_HAL_Driver/Src\stm32f4xx_hal_flash.c ****   }
 748:C:/Users/073be/STM32Cube/Repository/STM32Cube_FW_F4_V1.23.0/Drivers/STM32F4xx_HAL_Driver/Src\stm32f4xx_hal_flash.c ****   
 749:C:/Users/073be/STM32Cube/Repository/STM32Cube_FW_F4_V1.23.0/Drivers/STM32F4xx_HAL_Driver/Src\stm32f4xx_hal_flash.c ****   if(__HAL_FLASH_GET_FLAG(FLASH_FLAG_PGSERR) != RESET)
  77              		.loc 1 749 0
  78 004e 0D4B     		ldr	r3, .L7
  79 0050 DB68     		ldr	r3, [r3, #12]
  80 0052 13F0800F 		tst	r3, #128
  81 0056 07D0     		beq	.L5
 750:C:/Users/073be/STM32Cube/Repository/STM32Cube_FW_F4_V1.23.0/Drivers/STM32F4xx_HAL_Driver/Src\stm32f4xx_hal_flash.c ****   {
 751:C:/Users/073be/STM32Cube/Repository/STM32Cube_FW_F4_V1.23.0/Drivers/STM32F4xx_HAL_Driver/Src\stm32f4xx_hal_flash.c ****     pFlash.ErrorCode |= HAL_FLASH_ERROR_PGS;
  82              		.loc 1 751 0
  83 0058 0B4A     		ldr	r2, .L7+4
  84 005a D369     		ldr	r3, [r2, #28]
  85 005c 43F00203 		orr	r3, r3, #2
  86 0060 D361     		str	r3, [r2, #28]
 752:C:/Users/073be/STM32Cube/Repository/STM32Cube_FW_F4_V1.23.0/Drivers/STM32F4xx_HAL_Driver/Src\stm32f4xx_hal_flash.c ****     
 753:C:/Users/073be/STM32Cube/Repository/STM32Cube_FW_F4_V1.23.0/Drivers/STM32F4xx_HAL_Driver/Src\stm32f4xx_hal_flash.c ****     /* Clear FLASH Programming sequence error pending bit */
 754:C:/Users/073be/STM32Cube/Repository/STM32Cube_FW_F4_V1.23.0/Drivers/STM32F4xx_HAL_Driver/Src\stm32f4xx_hal_flash.c ****     __HAL_FLASH_CLEAR_FLAG(FLASH_FLAG_PGSERR);
  87              		.loc 1 754 0
  88 0062 084B     		ldr	r3, .L7
  89 0064 8022     		movs	r2, #128
  90 0066 DA60     		str	r2, [r3, #12]
  91              	.L5:
 755:C:/Users/073be/STM32Cube/Repository/STM32Cube_FW_F4_V1.23.0/Drivers/STM32F4xx_HAL_Driver/Src\stm32f4xx_hal_flash.c ****   }
 756:C:/Users/073be/STM32Cube/Repository/STM32Cube_FW_F4_V1.23.0/Drivers/STM32F4xx_HAL_Driver/Src\stm32f4xx_hal_flash.c **** #if defined(FLASH_SR_RDERR) 
 757:C:/Users/073be/STM32Cube/Repository/STM32Cube_FW_F4_V1.23.0/Drivers/STM32F4xx_HAL_Driver/Src\stm32f4xx_hal_flash.c ****   if(__HAL_FLASH_GET_FLAG(FLASH_FLAG_RDERR) != RESET)
 758:C:/Users/073be/STM32Cube/Repository/STM32Cube_FW_F4_V1.23.0/Drivers/STM32F4xx_HAL_Driver/Src\stm32f4xx_hal_flash.c ****   {
 759:C:/Users/073be/STM32Cube/Repository/STM32Cube_FW_F4_V1.23.0/Drivers/STM32F4xx_HAL_Driver/Src\stm32f4xx_hal_flash.c ****     pFlash.ErrorCode |= HAL_FLASH_ERROR_RD;
 760:C:/Users/073be/STM32Cube/Repository/STM32Cube_FW_F4_V1.23.0/Drivers/STM32F4xx_HAL_Driver/Src\stm32f4xx_hal_flash.c ****     
 761:C:/Users/073be/STM32Cube/Repository/STM32Cube_FW_F4_V1.23.0/Drivers/STM32F4xx_HAL_Driver/Src\stm32f4xx_hal_flash.c ****     /* Clear FLASH Proprietary readout protection error pending bit */
 762:C:/Users/073be/STM32Cube/Repository/STM32Cube_FW_F4_V1.23.0/Drivers/STM32F4xx_HAL_Driver/Src\stm32f4xx_hal_flash.c ****     __HAL_FLASH_CLEAR_FLAG(FLASH_FLAG_RDERR);
 763:C:/Users/073be/STM32Cube/Repository/STM32Cube_FW_F4_V1.23.0/Drivers/STM32F4xx_HAL_Driver/Src\stm32f4xx_hal_flash.c ****   }
 764:C:/Users/073be/STM32Cube/Repository/STM32Cube_FW_F4_V1.23.0/Drivers/STM32F4xx_HAL_Driver/Src\stm32f4xx_hal_flash.c **** #endif /* FLASH_SR_RDERR */  
 765:C:/Users/073be/STM32Cube/Repository/STM32Cube_FW_F4_V1.23.0/Drivers/STM32F4xx_HAL_Driver/Src\stm32f4xx_hal_flash.c ****   if(__HAL_FLASH_GET_FLAG(FLASH_FLAG_OPERR) != RESET)
ARM GAS  C:\Users\073be\AppData\Local\Temp\cceGulUG.s 			page 16


  92              		.loc 1 765 0
  93 0068 064B     		ldr	r3, .L7
  94 006a DB68     		ldr	r3, [r3, #12]
  95 006c 13F0020F 		tst	r3, #2
  96 0070 07D0     		beq	.L1
 766:C:/Users/073be/STM32Cube/Repository/STM32Cube_FW_F4_V1.23.0/Drivers/STM32F4xx_HAL_Driver/Src\stm32f4xx_hal_flash.c ****   {
 767:C:/Users/073be/STM32Cube/Repository/STM32Cube_FW_F4_V1.23.0/Drivers/STM32F4xx_HAL_Driver/Src\stm32f4xx_hal_flash.c ****     pFlash.ErrorCode |= HAL_FLASH_ERROR_OPERATION;
  97              		.loc 1 767 0
  98 0072 054A     		ldr	r2, .L7+4
  99 0074 D369     		ldr	r3, [r2, #28]
 100 0076 43F02003 		orr	r3, r3, #32
 101 007a D361     		str	r3, [r2, #28]
 768:C:/Users/073be/STM32Cube/Repository/STM32Cube_FW_F4_V1.23.0/Drivers/STM32F4xx_HAL_Driver/Src\stm32f4xx_hal_flash.c ****     
 769:C:/Users/073be/STM32Cube/Repository/STM32Cube_FW_F4_V1.23.0/Drivers/STM32F4xx_HAL_Driver/Src\stm32f4xx_hal_flash.c ****     /* Clear FLASH Operation error pending bit */
 770:C:/Users/073be/STM32Cube/Repository/STM32Cube_FW_F4_V1.23.0/Drivers/STM32F4xx_HAL_Driver/Src\stm32f4xx_hal_flash.c ****     __HAL_FLASH_CLEAR_FLAG(FLASH_FLAG_OPERR);
 102              		.loc 1 770 0
 103 007c 014B     		ldr	r3, .L7
 104 007e 0222     		movs	r2, #2
 105 0080 DA60     		str	r2, [r3, #12]
 106              	.L1:
 771:C:/Users/073be/STM32Cube/Repository/STM32Cube_FW_F4_V1.23.0/Drivers/STM32F4xx_HAL_Driver/Src\stm32f4xx_hal_flash.c ****   }
 772:C:/Users/073be/STM32Cube/Repository/STM32Cube_FW_F4_V1.23.0/Drivers/STM32F4xx_HAL_Driver/Src\stm32f4xx_hal_flash.c **** }
 107              		.loc 1 772 0
 108 0082 7047     		bx	lr
 109              	.L8:
 110              		.align	2
 111              	.L7:
 112 0084 003C0240 		.word	1073888256
 113 0088 00000000 		.word	pFlash
 114              		.cfi_endproc
 115              	.LFE142:
 117              		.section	.text.FLASH_Program_Byte,"ax",%progbits
 118              		.align	1
 119              		.syntax unified
 120              		.thumb
 121              		.thumb_func
 122              		.fpu fpv4-sp-d16
 124              	FLASH_Program_Byte:
 125              	.LFB141:
 707:C:/Users/073be/STM32Cube/Repository/STM32Cube_FW_F4_V1.23.0/Drivers/STM32F4xx_HAL_Driver/Src\stm32f4xx_hal_flash.c ****   /* Check the parameters */
 126              		.loc 1 707 0
 127              		.cfi_startproc
 128              		@ args = 0, pretend = 0, frame = 0
 129              		@ frame_needed = 0, uses_anonymous_args = 0
 130              	.LVL0:
 131 0000 38B5     		push	{r3, r4, r5, lr}
 132              	.LCFI0:
 133              		.cfi_def_cfa_offset 16
 134              		.cfi_offset 3, -16
 135              		.cfi_offset 4, -12
 136              		.cfi_offset 5, -8
 137              		.cfi_offset 14, -4
 138 0002 0446     		mov	r4, r0
 139 0004 0D46     		mov	r5, r1
 709:C:/Users/073be/STM32Cube/Repository/STM32Cube_FW_F4_V1.23.0/Drivers/STM32F4xx_HAL_Driver/Src\stm32f4xx_hal_flash.c ****   
 140              		.loc 1 709 0
 141 0006 00F17843 		add	r3, r0, #-134217728
ARM GAS  C:\Users\073be\AppData\Local\Temp\cceGulUG.s 			page 17


 142 000a B3F5801F 		cmp	r3, #1048576
 143 000e 06D3     		bcc	.L10
 709:C:/Users/073be/STM32Cube/Repository/STM32Cube_FW_F4_V1.23.0/Drivers/STM32F4xx_HAL_Driver/Src\stm32f4xx_hal_flash.c ****   
 144              		.loc 1 709 0 is_stmt 0 discriminator 1
 145 0010 00F16043 		add	r3, r0, #-536870912
 146 0014 03F50843 		add	r3, r3, #34816
 147 0018 B3F5047F 		cmp	r3, #528
 148 001c 0CD2     		bcs	.L12
 149              	.LVL1:
 150              	.L10:
 712:C:/Users/073be/STM32Cube/Repository/STM32Cube_FW_F4_V1.23.0/Drivers/STM32F4xx_HAL_Driver/Src\stm32f4xx_hal_flash.c ****   FLASH->CR |= FLASH_PSIZE_BYTE;
 151              		.loc 1 712 0 is_stmt 1
 152 001e 094B     		ldr	r3, .L13
 153 0020 1A69     		ldr	r2, [r3, #16]
 154 0022 22F44072 		bic	r2, r2, #768
 155 0026 1A61     		str	r2, [r3, #16]
 713:C:/Users/073be/STM32Cube/Repository/STM32Cube_FW_F4_V1.23.0/Drivers/STM32F4xx_HAL_Driver/Src\stm32f4xx_hal_flash.c ****   FLASH->CR |= FLASH_CR_PG;
 156              		.loc 1 713 0
 157 0028 1A69     		ldr	r2, [r3, #16]
 158 002a 1A61     		str	r2, [r3, #16]
 714:C:/Users/073be/STM32Cube/Repository/STM32Cube_FW_F4_V1.23.0/Drivers/STM32F4xx_HAL_Driver/Src\stm32f4xx_hal_flash.c **** 
 159              		.loc 1 714 0
 160 002c 1A69     		ldr	r2, [r3, #16]
 161 002e 42F00102 		orr	r2, r2, #1
 162 0032 1A61     		str	r2, [r3, #16]
 716:C:/Users/073be/STM32Cube/Repository/STM32Cube_FW_F4_V1.23.0/Drivers/STM32F4xx_HAL_Driver/Src\stm32f4xx_hal_flash.c **** }
 163              		.loc 1 716 0
 164 0034 2570     		strb	r5, [r4]
 717:C:/Users/073be/STM32Cube/Repository/STM32Cube_FW_F4_V1.23.0/Drivers/STM32F4xx_HAL_Driver/Src\stm32f4xx_hal_flash.c **** 
 165              		.loc 1 717 0
 166 0036 38BD     		pop	{r3, r4, r5, pc}
 167              	.LVL2:
 168              	.L12:
 709:C:/Users/073be/STM32Cube/Repository/STM32Cube_FW_F4_V1.23.0/Drivers/STM32F4xx_HAL_Driver/Src\stm32f4xx_hal_flash.c ****   
 169              		.loc 1 709 0 discriminator 2
 170 0038 40F2C521 		movw	r1, #709
 171              	.LVL3:
 172 003c 0248     		ldr	r0, .L13+4
 173              	.LVL4:
 174 003e FFF7FEFF 		bl	assert_failed
 175              	.LVL5:
 176 0042 ECE7     		b	.L10
 177              	.L14:
 178              		.align	2
 179              	.L13:
 180 0044 003C0240 		.word	1073888256
 181 0048 00000000 		.word	.LC0
 182              		.cfi_endproc
 183              	.LFE141:
 185              		.section	.text.FLASH_Program_HalfWord,"ax",%progbits
 186              		.align	1
 187              		.syntax unified
 188              		.thumb
 189              		.thumb_func
 190              		.fpu fpv4-sp-d16
 192              	FLASH_Program_HalfWord:
 193              	.LFB140:
ARM GAS  C:\Users\073be\AppData\Local\Temp\cceGulUG.s 			page 18


 682:C:/Users/073be/STM32Cube/Repository/STM32Cube_FW_F4_V1.23.0/Drivers/STM32F4xx_HAL_Driver/Src\stm32f4xx_hal_flash.c ****   /* Check the parameters */
 194              		.loc 1 682 0
 195              		.cfi_startproc
 196              		@ args = 0, pretend = 0, frame = 0
 197              		@ frame_needed = 0, uses_anonymous_args = 0
 198              	.LVL6:
 199 0000 38B5     		push	{r3, r4, r5, lr}
 200              	.LCFI1:
 201              		.cfi_def_cfa_offset 16
 202              		.cfi_offset 3, -16
 203              		.cfi_offset 4, -12
 204              		.cfi_offset 5, -8
 205              		.cfi_offset 14, -4
 206 0002 0446     		mov	r4, r0
 207 0004 0D46     		mov	r5, r1
 684:C:/Users/073be/STM32Cube/Repository/STM32Cube_FW_F4_V1.23.0/Drivers/STM32F4xx_HAL_Driver/Src\stm32f4xx_hal_flash.c ****   
 208              		.loc 1 684 0
 209 0006 00F17843 		add	r3, r0, #-134217728
 210 000a B3F5801F 		cmp	r3, #1048576
 211 000e 06D3     		bcc	.L16
 684:C:/Users/073be/STM32Cube/Repository/STM32Cube_FW_F4_V1.23.0/Drivers/STM32F4xx_HAL_Driver/Src\stm32f4xx_hal_flash.c ****   
 212              		.loc 1 684 0 is_stmt 0 discriminator 1
 213 0010 00F16043 		add	r3, r0, #-536870912
 214 0014 03F50843 		add	r3, r3, #34816
 215 0018 B3F5047F 		cmp	r3, #528
 216 001c 0ED2     		bcs	.L18
 217              	.LVL7:
 218              	.L16:
 687:C:/Users/073be/STM32Cube/Repository/STM32Cube_FW_F4_V1.23.0/Drivers/STM32F4xx_HAL_Driver/Src\stm32f4xx_hal_flash.c ****   FLASH->CR |= FLASH_PSIZE_HALF_WORD;
 219              		.loc 1 687 0 is_stmt 1
 220 001e 0A4B     		ldr	r3, .L19
 221 0020 1A69     		ldr	r2, [r3, #16]
 222 0022 22F44072 		bic	r2, r2, #768
 223 0026 1A61     		str	r2, [r3, #16]
 688:C:/Users/073be/STM32Cube/Repository/STM32Cube_FW_F4_V1.23.0/Drivers/STM32F4xx_HAL_Driver/Src\stm32f4xx_hal_flash.c ****   FLASH->CR |= FLASH_CR_PG;
 224              		.loc 1 688 0
 225 0028 1A69     		ldr	r2, [r3, #16]
 226 002a 42F48072 		orr	r2, r2, #256
 227 002e 1A61     		str	r2, [r3, #16]
 689:C:/Users/073be/STM32Cube/Repository/STM32Cube_FW_F4_V1.23.0/Drivers/STM32F4xx_HAL_Driver/Src\stm32f4xx_hal_flash.c **** 
 228              		.loc 1 689 0
 229 0030 1A69     		ldr	r2, [r3, #16]
 230 0032 42F00102 		orr	r2, r2, #1
 231 0036 1A61     		str	r2, [r3, #16]
 691:C:/Users/073be/STM32Cube/Repository/STM32Cube_FW_F4_V1.23.0/Drivers/STM32F4xx_HAL_Driver/Src\stm32f4xx_hal_flash.c **** }
 232              		.loc 1 691 0
 233 0038 2580     		strh	r5, [r4]	@ movhi
 692:C:/Users/073be/STM32Cube/Repository/STM32Cube_FW_F4_V1.23.0/Drivers/STM32F4xx_HAL_Driver/Src\stm32f4xx_hal_flash.c **** 
 234              		.loc 1 692 0
 235 003a 38BD     		pop	{r3, r4, r5, pc}
 236              	.LVL8:
 237              	.L18:
 684:C:/Users/073be/STM32Cube/Repository/STM32Cube_FW_F4_V1.23.0/Drivers/STM32F4xx_HAL_Driver/Src\stm32f4xx_hal_flash.c ****   
 238              		.loc 1 684 0 discriminator 2
 239 003c 4FF42B71 		mov	r1, #684
 240              	.LVL9:
 241 0040 0248     		ldr	r0, .L19+4
ARM GAS  C:\Users\073be\AppData\Local\Temp\cceGulUG.s 			page 19


 242              	.LVL10:
 243 0042 FFF7FEFF 		bl	assert_failed
 244              	.LVL11:
 245 0046 EAE7     		b	.L16
 246              	.L20:
 247              		.align	2
 248              	.L19:
 249 0048 003C0240 		.word	1073888256
 250 004c 00000000 		.word	.LC0
 251              		.cfi_endproc
 252              	.LFE140:
 254              		.section	.text.FLASH_Program_Word,"ax",%progbits
 255              		.align	1
 256              		.syntax unified
 257              		.thumb
 258              		.thumb_func
 259              		.fpu fpv4-sp-d16
 261              	FLASH_Program_Word:
 262              	.LFB139:
 657:C:/Users/073be/STM32Cube/Repository/STM32Cube_FW_F4_V1.23.0/Drivers/STM32F4xx_HAL_Driver/Src\stm32f4xx_hal_flash.c ****   /* Check the parameters */
 263              		.loc 1 657 0
 264              		.cfi_startproc
 265              		@ args = 0, pretend = 0, frame = 0
 266              		@ frame_needed = 0, uses_anonymous_args = 0
 267              	.LVL12:
 268 0000 38B5     		push	{r3, r4, r5, lr}
 269              	.LCFI2:
 270              		.cfi_def_cfa_offset 16
 271              		.cfi_offset 3, -16
 272              		.cfi_offset 4, -12
 273              		.cfi_offset 5, -8
 274              		.cfi_offset 14, -4
 275 0002 0446     		mov	r4, r0
 276 0004 0D46     		mov	r5, r1
 659:C:/Users/073be/STM32Cube/Repository/STM32Cube_FW_F4_V1.23.0/Drivers/STM32F4xx_HAL_Driver/Src\stm32f4xx_hal_flash.c ****   
 277              		.loc 1 659 0
 278 0006 00F17843 		add	r3, r0, #-134217728
 279 000a B3F5801F 		cmp	r3, #1048576
 280 000e 06D3     		bcc	.L22
 659:C:/Users/073be/STM32Cube/Repository/STM32Cube_FW_F4_V1.23.0/Drivers/STM32F4xx_HAL_Driver/Src\stm32f4xx_hal_flash.c ****   
 281              		.loc 1 659 0 is_stmt 0 discriminator 1
 282 0010 00F16043 		add	r3, r0, #-536870912
 283 0014 03F50843 		add	r3, r3, #34816
 284 0018 B3F5047F 		cmp	r3, #528
 285 001c 0ED2     		bcs	.L24
 286              	.LVL13:
 287              	.L22:
 662:C:/Users/073be/STM32Cube/Repository/STM32Cube_FW_F4_V1.23.0/Drivers/STM32F4xx_HAL_Driver/Src\stm32f4xx_hal_flash.c ****   FLASH->CR |= FLASH_PSIZE_WORD;
 288              		.loc 1 662 0 is_stmt 1
 289 001e 0A4B     		ldr	r3, .L25
 290 0020 1A69     		ldr	r2, [r3, #16]
 291 0022 22F44072 		bic	r2, r2, #768
 292 0026 1A61     		str	r2, [r3, #16]
 663:C:/Users/073be/STM32Cube/Repository/STM32Cube_FW_F4_V1.23.0/Drivers/STM32F4xx_HAL_Driver/Src\stm32f4xx_hal_flash.c ****   FLASH->CR |= FLASH_CR_PG;
 293              		.loc 1 663 0
 294 0028 1A69     		ldr	r2, [r3, #16]
 295 002a 42F40072 		orr	r2, r2, #512
ARM GAS  C:\Users\073be\AppData\Local\Temp\cceGulUG.s 			page 20


 296 002e 1A61     		str	r2, [r3, #16]
 664:C:/Users/073be/STM32Cube/Repository/STM32Cube_FW_F4_V1.23.0/Drivers/STM32F4xx_HAL_Driver/Src\stm32f4xx_hal_flash.c **** 
 297              		.loc 1 664 0
 298 0030 1A69     		ldr	r2, [r3, #16]
 299 0032 42F00102 		orr	r2, r2, #1
 300 0036 1A61     		str	r2, [r3, #16]
 666:C:/Users/073be/STM32Cube/Repository/STM32Cube_FW_F4_V1.23.0/Drivers/STM32F4xx_HAL_Driver/Src\stm32f4xx_hal_flash.c **** }
 301              		.loc 1 666 0
 302 0038 2560     		str	r5, [r4]
 667:C:/Users/073be/STM32Cube/Repository/STM32Cube_FW_F4_V1.23.0/Drivers/STM32F4xx_HAL_Driver/Src\stm32f4xx_hal_flash.c **** 
 303              		.loc 1 667 0
 304 003a 38BD     		pop	{r3, r4, r5, pc}
 305              	.LVL14:
 306              	.L24:
 659:C:/Users/073be/STM32Cube/Repository/STM32Cube_FW_F4_V1.23.0/Drivers/STM32F4xx_HAL_Driver/Src\stm32f4xx_hal_flash.c ****   
 307              		.loc 1 659 0 discriminator 2
 308 003c 40F29321 		movw	r1, #659
 309              	.LVL15:
 310 0040 0248     		ldr	r0, .L25+4
 311              	.LVL16:
 312 0042 FFF7FEFF 		bl	assert_failed
 313              	.LVL17:
 314 0046 EAE7     		b	.L22
 315              	.L26:
 316              		.align	2
 317              	.L25:
 318 0048 003C0240 		.word	1073888256
 319 004c 00000000 		.word	.LC0
 320              		.cfi_endproc
 321              	.LFE139:
 323              		.section	.text.FLASH_Program_DoubleWord,"ax",%progbits
 324              		.align	1
 325              		.syntax unified
 326              		.thumb
 327              		.thumb_func
 328              		.fpu fpv4-sp-d16
 330              	FLASH_Program_DoubleWord:
 331              	.LFB138:
 629:C:/Users/073be/STM32Cube/Repository/STM32Cube_FW_F4_V1.23.0/Drivers/STM32F4xx_HAL_Driver/Src\stm32f4xx_hal_flash.c ****   /* Check the parameters */
 332              		.loc 1 629 0
 333              		.cfi_startproc
 334              		@ args = 0, pretend = 0, frame = 0
 335              		@ frame_needed = 0, uses_anonymous_args = 0
 336              	.LVL18:
 337 0000 70B5     		push	{r4, r5, r6, lr}
 338              	.LCFI3:
 339              		.cfi_def_cfa_offset 16
 340              		.cfi_offset 4, -16
 341              		.cfi_offset 5, -12
 342              		.cfi_offset 6, -8
 343              		.cfi_offset 14, -4
 344 0002 0446     		mov	r4, r0
 345 0004 1646     		mov	r6, r2
 346 0006 1D46     		mov	r5, r3
 631:C:/Users/073be/STM32Cube/Repository/STM32Cube_FW_F4_V1.23.0/Drivers/STM32F4xx_HAL_Driver/Src\stm32f4xx_hal_flash.c ****   
 347              		.loc 1 631 0
 348 0008 00F17843 		add	r3, r0, #-134217728
ARM GAS  C:\Users\073be\AppData\Local\Temp\cceGulUG.s 			page 21


 349 000c B3F5801F 		cmp	r3, #1048576
 350 0010 06D3     		bcc	.L28
 631:C:/Users/073be/STM32Cube/Repository/STM32Cube_FW_F4_V1.23.0/Drivers/STM32F4xx_HAL_Driver/Src\stm32f4xx_hal_flash.c ****   
 351              		.loc 1 631 0 is_stmt 0 discriminator 1
 352 0012 00F16043 		add	r3, r0, #-536870912
 353 0016 03F50843 		add	r3, r3, #34816
 354 001a B3F5047F 		cmp	r3, #528
 355 001e 0FD2     		bcs	.L30
 356              	.LVL19:
 357              	.L28:
 634:C:/Users/073be/STM32Cube/Repository/STM32Cube_FW_F4_V1.23.0/Drivers/STM32F4xx_HAL_Driver/Src\stm32f4xx_hal_flash.c ****   FLASH->CR |= FLASH_PSIZE_DOUBLE_WORD;
 358              		.loc 1 634 0 is_stmt 1
 359 0020 0A4B     		ldr	r3, .L31
 360 0022 1A69     		ldr	r2, [r3, #16]
 361 0024 22F44072 		bic	r2, r2, #768
 362 0028 1A61     		str	r2, [r3, #16]
 635:C:/Users/073be/STM32Cube/Repository/STM32Cube_FW_F4_V1.23.0/Drivers/STM32F4xx_HAL_Driver/Src\stm32f4xx_hal_flash.c ****   FLASH->CR |= FLASH_CR_PG;
 363              		.loc 1 635 0
 364 002a 1A69     		ldr	r2, [r3, #16]
 365 002c 42F44072 		orr	r2, r2, #768
 366 0030 1A61     		str	r2, [r3, #16]
 636:C:/Users/073be/STM32Cube/Repository/STM32Cube_FW_F4_V1.23.0/Drivers/STM32F4xx_HAL_Driver/Src\stm32f4xx_hal_flash.c **** 
 367              		.loc 1 636 0
 368 0032 1A69     		ldr	r2, [r3, #16]
 369 0034 42F00102 		orr	r2, r2, #1
 370 0038 1A61     		str	r2, [r3, #16]
 639:C:/Users/073be/STM32Cube/Repository/STM32Cube_FW_F4_V1.23.0/Drivers/STM32F4xx_HAL_Driver/Src\stm32f4xx_hal_flash.c ****   *(__IO uint32_t*)(Address+4) = (uint32_t)(Data >> 32);
 371              		.loc 1 639 0
 372 003a 2660     		str	r6, [r4]
 640:C:/Users/073be/STM32Cube/Repository/STM32Cube_FW_F4_V1.23.0/Drivers/STM32F4xx_HAL_Driver/Src\stm32f4xx_hal_flash.c **** }
 373              		.loc 1 640 0
 374 003c 6560     		str	r5, [r4, #4]
 641:C:/Users/073be/STM32Cube/Repository/STM32Cube_FW_F4_V1.23.0/Drivers/STM32F4xx_HAL_Driver/Src\stm32f4xx_hal_flash.c **** 
 375              		.loc 1 641 0
 376 003e 70BD     		pop	{r4, r5, r6, pc}
 377              	.LVL20:
 378              	.L30:
 631:C:/Users/073be/STM32Cube/Repository/STM32Cube_FW_F4_V1.23.0/Drivers/STM32F4xx_HAL_Driver/Src\stm32f4xx_hal_flash.c ****   
 379              		.loc 1 631 0 discriminator 2
 380 0040 40F27721 		movw	r1, #631
 381 0044 0248     		ldr	r0, .L31+4
 382              	.LVL21:
 383 0046 FFF7FEFF 		bl	assert_failed
 384              	.LVL22:
 385 004a E9E7     		b	.L28
 386              	.L32:
 387              		.align	2
 388              	.L31:
 389 004c 003C0240 		.word	1073888256
 390 0050 00000000 		.word	.LC0
 391              		.cfi_endproc
 392              	.LFE138:
 394              		.section	.text.HAL_FLASH_Program_IT,"ax",%progbits
 395              		.align	1
 396              		.global	HAL_FLASH_Program_IT
 397              		.syntax unified
 398              		.thumb
ARM GAS  C:\Users\073be\AppData\Local\Temp\cceGulUG.s 			page 22


 399              		.thumb_func
 400              		.fpu fpv4-sp-d16
 402              	HAL_FLASH_Program_IT:
 403              	.LFB127:
 231:C:/Users/073be/STM32Cube/Repository/STM32Cube_FW_F4_V1.23.0/Drivers/STM32F4xx_HAL_Driver/Src\stm32f4xx_hal_flash.c ****   HAL_StatusTypeDef status = HAL_OK;
 404              		.loc 1 231 0
 405              		.cfi_startproc
 406              		@ args = 0, pretend = 0, frame = 0
 407              		@ frame_needed = 0, uses_anonymous_args = 0
 408              	.LVL23:
 409 0000 F8B5     		push	{r3, r4, r5, r6, r7, lr}
 410              	.LCFI4:
 411              		.cfi_def_cfa_offset 24
 412              		.cfi_offset 3, -24
 413              		.cfi_offset 4, -20
 414              		.cfi_offset 5, -16
 415              		.cfi_offset 6, -12
 416              		.cfi_offset 7, -8
 417              		.cfi_offset 14, -4
 418              	.LVL24:
 235:C:/Users/073be/STM32Cube/Repository/STM32Cube_FW_F4_V1.23.0/Drivers/STM32F4xx_HAL_Driver/Src\stm32f4xx_hal_flash.c **** 
 419              		.loc 1 235 0
 420 0002 204C     		ldr	r4, .L45
 421 0004 94F818C0 		ldrb	ip, [r4, #24]	@ zero_extendqisi2
 422 0008 BCF1010F 		cmp	ip, #1
 423 000c 38D0     		beq	.L39
 424 000e 1F46     		mov	r7, r3
 425 0010 1646     		mov	r6, r2
 426 0012 0D46     		mov	r5, r1
 427 0014 0446     		mov	r4, r0
 235:C:/Users/073be/STM32Cube/Repository/STM32Cube_FW_F4_V1.23.0/Drivers/STM32F4xx_HAL_Driver/Src\stm32f4xx_hal_flash.c **** 
 428              		.loc 1 235 0 is_stmt 0 discriminator 2
 429 0016 1B4B     		ldr	r3, .L45
 430 0018 0122     		movs	r2, #1
 431              	.LVL25:
 432 001a 1A76     		strb	r2, [r3, #24]
 238:C:/Users/073be/STM32Cube/Repository/STM32Cube_FW_F4_V1.23.0/Drivers/STM32F4xx_HAL_Driver/Src\stm32f4xx_hal_flash.c **** 
 433              		.loc 1 238 0 is_stmt 1 discriminator 2
 434 001c 0328     		cmp	r0, #3
 435 001e 18D8     		bhi	.L41
 436              	.LVL26:
 437              	.L35:
 241:C:/Users/073be/STM32Cube/Repository/STM32Cube_FW_F4_V1.23.0/Drivers/STM32F4xx_HAL_Driver/Src\stm32f4xx_hal_flash.c ****   
 438              		.loc 1 241 0
 439 0020 1949     		ldr	r1, .L45+4
 440 0022 0A69     		ldr	r2, [r1, #16]
 441 0024 42F08072 		orr	r2, r2, #16777216
 442 0028 0A61     		str	r2, [r1, #16]
 244:C:/Users/073be/STM32Cube/Repository/STM32Cube_FW_F4_V1.23.0/Drivers/STM32F4xx_HAL_Driver/Src\stm32f4xx_hal_flash.c **** 
 443              		.loc 1 244 0
 444 002a 0A69     		ldr	r2, [r1, #16]
 445 002c 42F00072 		orr	r2, r2, #33554432
 446 0030 0A61     		str	r2, [r1, #16]
 246:C:/Users/073be/STM32Cube/Repository/STM32Cube_FW_F4_V1.23.0/Drivers/STM32F4xx_HAL_Driver/Src\stm32f4xx_hal_flash.c ****   pFlash.Address = Address;
 447              		.loc 1 246 0
 448 0032 144B     		ldr	r3, .L45
 449 0034 0322     		movs	r2, #3
ARM GAS  C:\Users\073be\AppData\Local\Temp\cceGulUG.s 			page 23


 450 0036 1A70     		strb	r2, [r3]
 247:C:/Users/073be/STM32Cube/Repository/STM32Cube_FW_F4_V1.23.0/Drivers/STM32F4xx_HAL_Driver/Src\stm32f4xx_hal_flash.c **** 
 451              		.loc 1 247 0
 452 0038 5D61     		str	r5, [r3, #20]
 249:C:/Users/073be/STM32Cube/Repository/STM32Cube_FW_F4_V1.23.0/Drivers/STM32F4xx_HAL_Driver/Src\stm32f4xx_hal_flash.c ****   {
 453              		.loc 1 249 0
 454 003a 7CB1     		cbz	r4, .L42
 254:C:/Users/073be/STM32Cube/Repository/STM32Cube_FW_F4_V1.23.0/Drivers/STM32F4xx_HAL_Driver/Src\stm32f4xx_hal_flash.c ****   {
 455              		.loc 1 254 0
 456 003c 012C     		cmp	r4, #1
 457 003e 13D0     		beq	.L43
 259:C:/Users/073be/STM32Cube/Repository/STM32Cube_FW_F4_V1.23.0/Drivers/STM32F4xx_HAL_Driver/Src\stm32f4xx_hal_flash.c ****   {
 458              		.loc 1 259 0
 459 0040 022C     		cmp	r4, #2
 460 0042 17D0     		beq	.L44
 267:C:/Users/073be/STM32Cube/Repository/STM32Cube_FW_F4_V1.23.0/Drivers/STM32F4xx_HAL_Driver/Src\stm32f4xx_hal_flash.c ****   }
 461              		.loc 1 267 0
 462 0044 3246     		mov	r2, r6
 463 0046 3B46     		mov	r3, r7
 464 0048 2846     		mov	r0, r5
 465 004a FFF7FEFF 		bl	FLASH_Program_DoubleWord
 466              	.LVL27:
 270:C:/Users/073be/STM32Cube/Repository/STM32Cube_FW_F4_V1.23.0/Drivers/STM32F4xx_HAL_Driver/Src\stm32f4xx_hal_flash.c **** }
 467              		.loc 1 270 0
 468 004e 0020     		movs	r0, #0
 469              	.LVL28:
 470              	.L34:
 271:C:/Users/073be/STM32Cube/Repository/STM32Cube_FW_F4_V1.23.0/Drivers/STM32F4xx_HAL_Driver/Src\stm32f4xx_hal_flash.c **** 
 471              		.loc 1 271 0
 472 0050 F8BD     		pop	{r3, r4, r5, r6, r7, pc}
 473              	.LVL29:
 474              	.L41:
 238:C:/Users/073be/STM32Cube/Repository/STM32Cube_FW_F4_V1.23.0/Drivers/STM32F4xx_HAL_Driver/Src\stm32f4xx_hal_flash.c **** 
 475              		.loc 1 238 0 discriminator 1
 476 0052 EE21     		movs	r1, #238
 477              	.LVL30:
 478 0054 0D48     		ldr	r0, .L45+8
 479              	.LVL31:
 480 0056 FFF7FEFF 		bl	assert_failed
 481              	.LVL32:
 482 005a E1E7     		b	.L35
 483              	.L42:
 252:C:/Users/073be/STM32Cube/Repository/STM32Cube_FW_F4_V1.23.0/Drivers/STM32F4xx_HAL_Driver/Src\stm32f4xx_hal_flash.c ****   }
 484              		.loc 1 252 0
 485 005c F1B2     		uxtb	r1, r6
 486 005e 2846     		mov	r0, r5
 487 0060 FFF7FEFF 		bl	FLASH_Program_Byte
 488              	.LVL33:
 270:C:/Users/073be/STM32Cube/Repository/STM32Cube_FW_F4_V1.23.0/Drivers/STM32F4xx_HAL_Driver/Src\stm32f4xx_hal_flash.c **** }
 489              		.loc 1 270 0
 490 0064 0020     		movs	r0, #0
 491 0066 F3E7     		b	.L34
 492              	.L43:
 257:C:/Users/073be/STM32Cube/Repository/STM32Cube_FW_F4_V1.23.0/Drivers/STM32F4xx_HAL_Driver/Src\stm32f4xx_hal_flash.c ****   }
 493              		.loc 1 257 0
 494 0068 B1B2     		uxth	r1, r6
 495 006a 2846     		mov	r0, r5
ARM GAS  C:\Users\073be\AppData\Local\Temp\cceGulUG.s 			page 24


 496 006c FFF7FEFF 		bl	FLASH_Program_HalfWord
 497              	.LVL34:
 270:C:/Users/073be/STM32Cube/Repository/STM32Cube_FW_F4_V1.23.0/Drivers/STM32F4xx_HAL_Driver/Src\stm32f4xx_hal_flash.c **** }
 498              		.loc 1 270 0
 499 0070 0020     		movs	r0, #0
 500 0072 EDE7     		b	.L34
 501              	.L44:
 262:C:/Users/073be/STM32Cube/Repository/STM32Cube_FW_F4_V1.23.0/Drivers/STM32F4xx_HAL_Driver/Src\stm32f4xx_hal_flash.c ****   }
 502              		.loc 1 262 0
 503 0074 3146     		mov	r1, r6
 504 0076 2846     		mov	r0, r5
 505 0078 FFF7FEFF 		bl	FLASH_Program_Word
 506              	.LVL35:
 270:C:/Users/073be/STM32Cube/Repository/STM32Cube_FW_F4_V1.23.0/Drivers/STM32F4xx_HAL_Driver/Src\stm32f4xx_hal_flash.c **** }
 507              		.loc 1 270 0
 508 007c 0020     		movs	r0, #0
 509 007e E7E7     		b	.L34
 510              	.LVL36:
 511              	.L39:
 235:C:/Users/073be/STM32Cube/Repository/STM32Cube_FW_F4_V1.23.0/Drivers/STM32F4xx_HAL_Driver/Src\stm32f4xx_hal_flash.c **** 
 512              		.loc 1 235 0
 513 0080 0220     		movs	r0, #2
 514              	.LVL37:
 515 0082 E5E7     		b	.L34
 516              	.L46:
 517              		.align	2
 518              	.L45:
 519 0084 00000000 		.word	pFlash
 520 0088 003C0240 		.word	1073888256
 521 008c 00000000 		.word	.LC0
 522              		.cfi_endproc
 523              	.LFE127:
 525              		.section	.text.HAL_FLASH_EndOfOperationCallback,"ax",%progbits
 526              		.align	1
 527              		.weak	HAL_FLASH_EndOfOperationCallback
 528              		.syntax unified
 529              		.thumb
 530              		.thumb_func
 531              		.fpu fpv4-sp-d16
 533              	HAL_FLASH_EndOfOperationCallback:
 534              	.LFB129:
 401:C:/Users/073be/STM32Cube/Repository/STM32Cube_FW_F4_V1.23.0/Drivers/STM32F4xx_HAL_Driver/Src\stm32f4xx_hal_flash.c ****   /* Prevent unused argument(s) compilation warning */
 535              		.loc 1 401 0
 536              		.cfi_startproc
 537              		@ args = 0, pretend = 0, frame = 0
 538              		@ frame_needed = 0, uses_anonymous_args = 0
 539              		@ link register save eliminated.
 540              	.LVL38:
 407:C:/Users/073be/STM32Cube/Repository/STM32Cube_FW_F4_V1.23.0/Drivers/STM32F4xx_HAL_Driver/Src\stm32f4xx_hal_flash.c **** 
 541              		.loc 1 407 0
 542 0000 7047     		bx	lr
 543              		.cfi_endproc
 544              	.LFE129:
 546              		.section	.text.HAL_FLASH_OperationErrorCallback,"ax",%progbits
 547              		.align	1
 548              		.weak	HAL_FLASH_OperationErrorCallback
 549              		.syntax unified
ARM GAS  C:\Users\073be\AppData\Local\Temp\cceGulUG.s 			page 25


 550              		.thumb
 551              		.thumb_func
 552              		.fpu fpv4-sp-d16
 554              	HAL_FLASH_OperationErrorCallback:
 555              	.LFB130:
 418:C:/Users/073be/STM32Cube/Repository/STM32Cube_FW_F4_V1.23.0/Drivers/STM32F4xx_HAL_Driver/Src\stm32f4xx_hal_flash.c ****   /* Prevent unused argument(s) compilation warning */
 556              		.loc 1 418 0
 557              		.cfi_startproc
 558              		@ args = 0, pretend = 0, frame = 0
 559              		@ frame_needed = 0, uses_anonymous_args = 0
 560              		@ link register save eliminated.
 561              	.LVL39:
 424:C:/Users/073be/STM32Cube/Repository/STM32Cube_FW_F4_V1.23.0/Drivers/STM32F4xx_HAL_Driver/Src\stm32f4xx_hal_flash.c **** 
 562              		.loc 1 424 0
 563 0000 7047     		bx	lr
 564              		.cfi_endproc
 565              	.LFE130:
 567              		.section	.text.HAL_FLASH_IRQHandler,"ax",%progbits
 568              		.align	1
 569              		.global	HAL_FLASH_IRQHandler
 570              		.syntax unified
 571              		.thumb
 572              		.thumb_func
 573              		.fpu fpv4-sp-d16
 575              	HAL_FLASH_IRQHandler:
 576              	.LFB128:
 278:C:/Users/073be/STM32Cube/Repository/STM32Cube_FW_F4_V1.23.0/Drivers/STM32F4xx_HAL_Driver/Src\stm32f4xx_hal_flash.c ****   uint32_t addresstmp = 0U;
 577              		.loc 1 278 0
 578              		.cfi_startproc
 579              		@ args = 0, pretend = 0, frame = 0
 580              		@ frame_needed = 0, uses_anonymous_args = 0
 581 0000 10B5     		push	{r4, lr}
 582              	.LCFI5:
 583              		.cfi_def_cfa_offset 8
 584              		.cfi_offset 4, -8
 585              		.cfi_offset 14, -4
 586              	.LVL40:
 286:C:/Users/073be/STM32Cube/Repository/STM32Cube_FW_F4_V1.23.0/Drivers/STM32F4xx_HAL_Driver/Src\stm32f4xx_hal_flash.c ****     FLASH_FLAG_PGPERR | FLASH_FLAG_PGSERR)) != RESET)
 587              		.loc 1 286 0
 588 0002 3A4B     		ldr	r3, .L65
 589 0004 DB68     		ldr	r3, [r3, #12]
 590 0006 13F0F20F 		tst	r3, #242
 591 000a 13D0     		beq	.L50
 290:C:/Users/073be/STM32Cube/Repository/STM32Cube_FW_F4_V1.23.0/Drivers/STM32F4xx_HAL_Driver/Src\stm32f4xx_hal_flash.c ****     {
 592              		.loc 1 290 0
 593 000c 384B     		ldr	r3, .L65+4
 594 000e 1B78     		ldrb	r3, [r3]	@ zero_extendqisi2
 595 0010 DBB2     		uxtb	r3, r3
 596 0012 012B     		cmp	r3, #1
 597 0014 3BD0     		beq	.L61
 296:C:/Users/073be/STM32Cube/Repository/STM32Cube_FW_F4_V1.23.0/Drivers/STM32F4xx_HAL_Driver/Src\stm32f4xx_hal_flash.c ****     {
 598              		.loc 1 296 0
 599 0016 364B     		ldr	r3, .L65+4
 600 0018 1B78     		ldrb	r3, [r3]	@ zero_extendqisi2
 601 001a DBB2     		uxtb	r3, r3
 602 001c 022B     		cmp	r3, #2
 603 001e 3CD0     		beq	.L62
ARM GAS  C:\Users\073be\AppData\Local\Temp\cceGulUG.s 			page 26


 304:C:/Users/073be/STM32Cube/Repository/STM32Cube_FW_F4_V1.23.0/Drivers/STM32F4xx_HAL_Driver/Src\stm32f4xx_hal_flash.c ****     }
 604              		.loc 1 304 0
 605 0020 334B     		ldr	r3, .L65+4
 606 0022 5C69     		ldr	r4, [r3, #20]
 607              	.LVL41:
 608              	.L52:
 308:C:/Users/073be/STM32Cube/Repository/STM32Cube_FW_F4_V1.23.0/Drivers/STM32F4xx_HAL_Driver/Src\stm32f4xx_hal_flash.c ****     
 609              		.loc 1 308 0
 610 0024 FFF7FEFF 		bl	FLASH_SetErrorCode
 611              	.LVL42:
 311:C:/Users/073be/STM32Cube/Repository/STM32Cube_FW_F4_V1.23.0/Drivers/STM32F4xx_HAL_Driver/Src\stm32f4xx_hal_flash.c ****     
 612              		.loc 1 311 0
 613 0028 2046     		mov	r0, r4
 614 002a FFF7FEFF 		bl	HAL_FLASH_OperationErrorCallback
 615              	.LVL43:
 314:C:/Users/073be/STM32Cube/Repository/STM32Cube_FW_F4_V1.23.0/Drivers/STM32F4xx_HAL_Driver/Src\stm32f4xx_hal_flash.c ****   }
 616              		.loc 1 314 0
 617 002e 304B     		ldr	r3, .L65+4
 618 0030 0022     		movs	r2, #0
 619 0032 1A70     		strb	r2, [r3]
 620              	.LVL44:
 621              	.L50:
 318:C:/Users/073be/STM32Cube/Repository/STM32Cube_FW_F4_V1.23.0/Drivers/STM32F4xx_HAL_Driver/Src\stm32f4xx_hal_flash.c ****   {
 622              		.loc 1 318 0
 623 0034 2D4B     		ldr	r3, .L65
 624 0036 DB68     		ldr	r3, [r3, #12]
 625 0038 13F0010F 		tst	r3, #1
 626 003c 13D0     		beq	.L54
 321:C:/Users/073be/STM32Cube/Repository/STM32Cube_FW_F4_V1.23.0/Drivers/STM32F4xx_HAL_Driver/Src\stm32f4xx_hal_flash.c ****     
 627              		.loc 1 321 0
 628 003e 2B4B     		ldr	r3, .L65
 629 0040 0122     		movs	r2, #1
 630 0042 DA60     		str	r2, [r3, #12]
 323:C:/Users/073be/STM32Cube/Repository/STM32Cube_FW_F4_V1.23.0/Drivers/STM32F4xx_HAL_Driver/Src\stm32f4xx_hal_flash.c ****     {
 631              		.loc 1 323 0
 632 0044 2A4B     		ldr	r3, .L65+4
 633 0046 1B78     		ldrb	r3, [r3]	@ zero_extendqisi2
 634 0048 DBB2     		uxtb	r3, r3
 635 004a 9342     		cmp	r3, r2
 636 004c 28D0     		beq	.L63
 356:C:/Users/073be/STM32Cube/Repository/STM32Cube_FW_F4_V1.23.0/Drivers/STM32F4xx_HAL_Driver/Src\stm32f4xx_hal_flash.c ****       {
 637              		.loc 1 356 0
 638 004e 284B     		ldr	r3, .L65+4
 639 0050 1B78     		ldrb	r3, [r3]	@ zero_extendqisi2
 640 0052 DBB2     		uxtb	r3, r3
 641 0054 022B     		cmp	r3, #2
 642 0056 41D0     		beq	.L64
 369:C:/Users/073be/STM32Cube/Repository/STM32Cube_FW_F4_V1.23.0/Drivers/STM32F4xx_HAL_Driver/Src\stm32f4xx_hal_flash.c ****       }
 643              		.loc 1 369 0
 644 0058 254B     		ldr	r3, .L65+4
 645 005a 5869     		ldr	r0, [r3, #20]
 646 005c FFF7FEFF 		bl	HAL_FLASH_EndOfOperationCallback
 647              	.LVL45:
 648              	.L58:
 371:C:/Users/073be/STM32Cube/Repository/STM32Cube_FW_F4_V1.23.0/Drivers/STM32F4xx_HAL_Driver/Src\stm32f4xx_hal_flash.c ****     }
 649              		.loc 1 371 0
 650 0060 234B     		ldr	r3, .L65+4
ARM GAS  C:\Users\073be\AppData\Local\Temp\cceGulUG.s 			page 27


 651 0062 0022     		movs	r2, #0
 652 0064 1A70     		strb	r2, [r3]
 653              	.L54:
 375:C:/Users/073be/STM32Cube/Repository/STM32Cube_FW_F4_V1.23.0/Drivers/STM32F4xx_HAL_Driver/Src\stm32f4xx_hal_flash.c ****   {
 654              		.loc 1 375 0
 655 0066 224B     		ldr	r3, .L65+4
 656 0068 1B78     		ldrb	r3, [r3]	@ zero_extendqisi2
 657 006a 7BB9     		cbnz	r3, .L49
 378:C:/Users/073be/STM32Cube/Repository/STM32Cube_FW_F4_V1.23.0/Drivers/STM32F4xx_HAL_Driver/Src\stm32f4xx_hal_flash.c **** 
 658              		.loc 1 378 0
 659 006c 1F4B     		ldr	r3, .L65
 660 006e 1A69     		ldr	r2, [r3, #16]
 661 0070 22F0FF02 		bic	r2, r2, #255
 662 0074 1A61     		str	r2, [r3, #16]
 381:C:/Users/073be/STM32Cube/Repository/STM32Cube_FW_F4_V1.23.0/Drivers/STM32F4xx_HAL_Driver/Src\stm32f4xx_hal_flash.c ****     
 663              		.loc 1 381 0
 664 0076 1A69     		ldr	r2, [r3, #16]
 665 0078 22F08072 		bic	r2, r2, #16777216
 666 007c 1A61     		str	r2, [r3, #16]
 384:C:/Users/073be/STM32Cube/Repository/STM32Cube_FW_F4_V1.23.0/Drivers/STM32F4xx_HAL_Driver/Src\stm32f4xx_hal_flash.c ****     
 667              		.loc 1 384 0
 668 007e 1A69     		ldr	r2, [r3, #16]
 669 0080 22F00072 		bic	r2, r2, #33554432
 670 0084 1A61     		str	r2, [r3, #16]
 387:C:/Users/073be/STM32Cube/Repository/STM32Cube_FW_F4_V1.23.0/Drivers/STM32F4xx_HAL_Driver/Src\stm32f4xx_hal_flash.c ****   }
 671              		.loc 1 387 0
 672 0086 1A4B     		ldr	r3, .L65+4
 673 0088 0022     		movs	r2, #0
 674 008a 1A76     		strb	r2, [r3, #24]
 675              	.L49:
 389:C:/Users/073be/STM32Cube/Repository/STM32Cube_FW_F4_V1.23.0/Drivers/STM32F4xx_HAL_Driver/Src\stm32f4xx_hal_flash.c **** 
 676              		.loc 1 389 0
 677 008c 10BD     		pop	{r4, pc}
 678              	.LVL46:
 679              	.L61:
 293:C:/Users/073be/STM32Cube/Repository/STM32Cube_FW_F4_V1.23.0/Drivers/STM32F4xx_HAL_Driver/Src\stm32f4xx_hal_flash.c ****       pFlash.Sector = 0xFFFFFFFFU;
 680              		.loc 1 293 0
 681 008e 184B     		ldr	r3, .L65+4
 682 0090 DC68     		ldr	r4, [r3, #12]
 683              	.LVL47:
 294:C:/Users/073be/STM32Cube/Repository/STM32Cube_FW_F4_V1.23.0/Drivers/STM32F4xx_HAL_Driver/Src\stm32f4xx_hal_flash.c ****     }
 684              		.loc 1 294 0
 685 0092 4FF0FF32 		mov	r2, #-1
 686 0096 DA60     		str	r2, [r3, #12]
 687 0098 C4E7     		b	.L52
 688              	.LVL48:
 689              	.L62:
 299:C:/Users/073be/STM32Cube/Repository/STM32Cube_FW_F4_V1.23.0/Drivers/STM32F4xx_HAL_Driver/Src\stm32f4xx_hal_flash.c ****     }
 690              		.loc 1 299 0
 691 009a 154B     		ldr	r3, .L65+4
 692 009c 1C69     		ldr	r4, [r3, #16]
 693              	.LVL49:
 694 009e C1E7     		b	.L52
 695              	.LVL50:
 696              	.L63:
 326:C:/Users/073be/STM32Cube/Repository/STM32Cube_FW_F4_V1.23.0/Drivers/STM32F4xx_HAL_Driver/Src\stm32f4xx_hal_flash.c ****       
 697              		.loc 1 326 0
ARM GAS  C:\Users\073be\AppData\Local\Temp\cceGulUG.s 			page 28


 698 00a0 134B     		ldr	r3, .L65+4
 699 00a2 5A68     		ldr	r2, [r3, #4]
 700 00a4 013A     		subs	r2, r2, #1
 701 00a6 5A60     		str	r2, [r3, #4]
 329:C:/Users/073be/STM32Cube/Repository/STM32Cube_FW_F4_V1.23.0/Drivers/STM32F4xx_HAL_Driver/Src\stm32f4xx_hal_flash.c ****       {
 702              		.loc 1 329 0
 703 00a8 5B68     		ldr	r3, [r3, #4]
 704 00aa 5BB1     		cbz	r3, .L56
 331:C:/Users/073be/STM32Cube/Repository/STM32Cube_FW_F4_V1.23.0/Drivers/STM32F4xx_HAL_Driver/Src\stm32f4xx_hal_flash.c ****         /*Indicate user which sector has been erased*/
 705              		.loc 1 331 0
 706 00ac 104C     		ldr	r4, .L65+4
 707 00ae E068     		ldr	r0, [r4, #12]
 708              	.LVL51:
 333:C:/Users/073be/STM32Cube/Repository/STM32Cube_FW_F4_V1.23.0/Drivers/STM32F4xx_HAL_Driver/Src\stm32f4xx_hal_flash.c ****         
 709              		.loc 1 333 0
 710 00b0 FFF7FEFF 		bl	HAL_FLASH_EndOfOperationCallback
 711              	.LVL52:
 336:C:/Users/073be/STM32Cube/Repository/STM32Cube_FW_F4_V1.23.0/Drivers/STM32F4xx_HAL_Driver/Src\stm32f4xx_hal_flash.c ****         addresstmp = pFlash.Sector;
 712              		.loc 1 336 0
 713 00b4 E368     		ldr	r3, [r4, #12]
 714 00b6 0133     		adds	r3, r3, #1
 715 00b8 E360     		str	r3, [r4, #12]
 337:C:/Users/073be/STM32Cube/Repository/STM32Cube_FW_F4_V1.23.0/Drivers/STM32F4xx_HAL_Driver/Src\stm32f4xx_hal_flash.c ****         FLASH_Erase_Sector(addresstmp, pFlash.VoltageForErase);
 716              		.loc 1 337 0
 717 00ba E068     		ldr	r0, [r4, #12]
 718              	.LVL53:
 338:C:/Users/073be/STM32Cube/Repository/STM32Cube_FW_F4_V1.23.0/Drivers/STM32F4xx_HAL_Driver/Src\stm32f4xx_hal_flash.c ****       }
 719              		.loc 1 338 0
 720 00bc 217A     		ldrb	r1, [r4, #8]	@ zero_extendqisi2
 721 00be FFF7FEFF 		bl	FLASH_Erase_Sector
 722              	.LVL54:
 723 00c2 D0E7     		b	.L54
 724              	.L56:
 725              	.LVL55:
 344:C:/Users/073be/STM32Cube/Repository/STM32Cube_FW_F4_V1.23.0/Drivers/STM32F4xx_HAL_Driver/Src\stm32f4xx_hal_flash.c ****         pFlash.ProcedureOnGoing = FLASH_PROC_NONE;
 726              		.loc 1 344 0
 727 00c4 0A4B     		ldr	r3, .L65+4
 728 00c6 4FF0FF34 		mov	r4, #-1
 729 00ca DC60     		str	r4, [r3, #12]
 345:C:/Users/073be/STM32Cube/Repository/STM32Cube_FW_F4_V1.23.0/Drivers/STM32F4xx_HAL_Driver/Src\stm32f4xx_hal_flash.c ****         
 730              		.loc 1 345 0
 731 00cc 0022     		movs	r2, #0
 732 00ce 1A70     		strb	r2, [r3]
 348:C:/Users/073be/STM32Cube/Repository/STM32Cube_FW_F4_V1.23.0/Drivers/STM32F4xx_HAL_Driver/Src\stm32f4xx_hal_flash.c ****                 
 733              		.loc 1 348 0
 734 00d0 FFF7FEFF 		bl	FLASH_FlushCaches
 735              	.LVL56:
 351:C:/Users/073be/STM32Cube/Repository/STM32Cube_FW_F4_V1.23.0/Drivers/STM32F4xx_HAL_Driver/Src\stm32f4xx_hal_flash.c ****       }
 736              		.loc 1 351 0
 737 00d4 2046     		mov	r0, r4
 738 00d6 FFF7FEFF 		bl	HAL_FLASH_EndOfOperationCallback
 739              	.LVL57:
 740 00da C4E7     		b	.L54
 741              	.LVL58:
 742              	.L64:
 360:C:/Users/073be/STM32Cube/Repository/STM32Cube_FW_F4_V1.23.0/Drivers/STM32F4xx_HAL_Driver/Src\stm32f4xx_hal_flash.c **** 
 743              		.loc 1 360 0
ARM GAS  C:\Users\073be\AppData\Local\Temp\cceGulUG.s 			page 29


 744 00dc FFF7FEFF 		bl	FLASH_FlushCaches
 745              	.LVL59:
 363:C:/Users/073be/STM32Cube/Repository/STM32Cube_FW_F4_V1.23.0/Drivers/STM32F4xx_HAL_Driver/Src\stm32f4xx_hal_flash.c ****       }
 746              		.loc 1 363 0
 747 00e0 034B     		ldr	r3, .L65+4
 748 00e2 1869     		ldr	r0, [r3, #16]
 749 00e4 FFF7FEFF 		bl	HAL_FLASH_EndOfOperationCallback
 750              	.LVL60:
 751 00e8 BAE7     		b	.L58
 752              	.L66:
 753 00ea 00BF     		.align	2
 754              	.L65:
 755 00ec 003C0240 		.word	1073888256
 756 00f0 00000000 		.word	pFlash
 757              		.cfi_endproc
 758              	.LFE128:
 760              		.section	.text.HAL_FLASH_Unlock,"ax",%progbits
 761              		.align	1
 762              		.global	HAL_FLASH_Unlock
 763              		.syntax unified
 764              		.thumb
 765              		.thumb_func
 766              		.fpu fpv4-sp-d16
 768              	HAL_FLASH_Unlock:
 769              	.LFB131:
 450:C:/Users/073be/STM32Cube/Repository/STM32Cube_FW_F4_V1.23.0/Drivers/STM32F4xx_HAL_Driver/Src\stm32f4xx_hal_flash.c ****   HAL_StatusTypeDef status = HAL_OK;
 770              		.loc 1 450 0
 771              		.cfi_startproc
 772              		@ args = 0, pretend = 0, frame = 0
 773              		@ frame_needed = 0, uses_anonymous_args = 0
 774              		@ link register save eliminated.
 775              	.LVL61:
 453:C:/Users/073be/STM32Cube/Repository/STM32Cube_FW_F4_V1.23.0/Drivers/STM32F4xx_HAL_Driver/Src\stm32f4xx_hal_flash.c ****   {
 776              		.loc 1 453 0
 777 0000 094B     		ldr	r3, .L72
 778 0002 1B69     		ldr	r3, [r3, #16]
 779 0004 002B     		cmp	r3, #0
 780 0006 01DB     		blt	.L71
 451:C:/Users/073be/STM32Cube/Repository/STM32Cube_FW_F4_V1.23.0/Drivers/STM32F4xx_HAL_Driver/Src\stm32f4xx_hal_flash.c **** 
 781              		.loc 1 451 0
 782 0008 0020     		movs	r0, #0
 783 000a 7047     		bx	lr
 784              	.L71:
 456:C:/Users/073be/STM32Cube/Repository/STM32Cube_FW_F4_V1.23.0/Drivers/STM32F4xx_HAL_Driver/Src\stm32f4xx_hal_flash.c ****     WRITE_REG(FLASH->KEYR, FLASH_KEY2);
 785              		.loc 1 456 0
 786 000c 064B     		ldr	r3, .L72
 787 000e 074A     		ldr	r2, .L72+4
 788 0010 5A60     		str	r2, [r3, #4]
 457:C:/Users/073be/STM32Cube/Repository/STM32Cube_FW_F4_V1.23.0/Drivers/STM32F4xx_HAL_Driver/Src\stm32f4xx_hal_flash.c **** 
 789              		.loc 1 457 0
 790 0012 02F18832 		add	r2, r2, #-2004318072
 791 0016 5A60     		str	r2, [r3, #4]
 460:C:/Users/073be/STM32Cube/Repository/STM32Cube_FW_F4_V1.23.0/Drivers/STM32F4xx_HAL_Driver/Src\stm32f4xx_hal_flash.c ****     {
 792              		.loc 1 460 0
 793 0018 1B69     		ldr	r3, [r3, #16]
 794 001a 002B     		cmp	r3, #0
 795 001c 01DB     		blt	.L70
ARM GAS  C:\Users\073be\AppData\Local\Temp\cceGulUG.s 			page 30


 451:C:/Users/073be/STM32Cube/Repository/STM32Cube_FW_F4_V1.23.0/Drivers/STM32F4xx_HAL_Driver/Src\stm32f4xx_hal_flash.c **** 
 796              		.loc 1 451 0
 797 001e 0020     		movs	r0, #0
 798 0020 7047     		bx	lr
 799              	.L70:
 462:C:/Users/073be/STM32Cube/Repository/STM32Cube_FW_F4_V1.23.0/Drivers/STM32F4xx_HAL_Driver/Src\stm32f4xx_hal_flash.c ****     }
 800              		.loc 1 462 0
 801 0022 0120     		movs	r0, #1
 802              	.LVL62:
 467:C:/Users/073be/STM32Cube/Repository/STM32Cube_FW_F4_V1.23.0/Drivers/STM32F4xx_HAL_Driver/Src\stm32f4xx_hal_flash.c **** 
 803              		.loc 1 467 0
 804 0024 7047     		bx	lr
 805              	.L73:
 806 0026 00BF     		.align	2
 807              	.L72:
 808 0028 003C0240 		.word	1073888256
 809 002c 23016745 		.word	1164378403
 810              		.cfi_endproc
 811              	.LFE131:
 813              		.section	.text.HAL_FLASH_Lock,"ax",%progbits
 814              		.align	1
 815              		.global	HAL_FLASH_Lock
 816              		.syntax unified
 817              		.thumb
 818              		.thumb_func
 819              		.fpu fpv4-sp-d16
 821              	HAL_FLASH_Lock:
 822              	.LFB132:
 474:C:/Users/073be/STM32Cube/Repository/STM32Cube_FW_F4_V1.23.0/Drivers/STM32F4xx_HAL_Driver/Src\stm32f4xx_hal_flash.c ****   /* Set the LOCK Bit to lock the FLASH Registers access */
 823              		.loc 1 474 0
 824              		.cfi_startproc
 825              		@ args = 0, pretend = 0, frame = 0
 826              		@ frame_needed = 0, uses_anonymous_args = 0
 827              		@ link register save eliminated.
 476:C:/Users/073be/STM32Cube/Repository/STM32Cube_FW_F4_V1.23.0/Drivers/STM32F4xx_HAL_Driver/Src\stm32f4xx_hal_flash.c ****   
 828              		.loc 1 476 0
 829 0000 034A     		ldr	r2, .L75
 830 0002 1369     		ldr	r3, [r2, #16]
 831 0004 43F00043 		orr	r3, r3, #-2147483648
 832 0008 1361     		str	r3, [r2, #16]
 479:C:/Users/073be/STM32Cube/Repository/STM32Cube_FW_F4_V1.23.0/Drivers/STM32F4xx_HAL_Driver/Src\stm32f4xx_hal_flash.c **** 
 833              		.loc 1 479 0
 834 000a 0020     		movs	r0, #0
 835 000c 7047     		bx	lr
 836              	.L76:
 837 000e 00BF     		.align	2
 838              	.L75:
 839 0010 003C0240 		.word	1073888256
 840              		.cfi_endproc
 841              	.LFE132:
 843              		.section	.text.HAL_FLASH_OB_Unlock,"ax",%progbits
 844              		.align	1
 845              		.global	HAL_FLASH_OB_Unlock
 846              		.syntax unified
 847              		.thumb
 848              		.thumb_func
 849              		.fpu fpv4-sp-d16
ARM GAS  C:\Users\073be\AppData\Local\Temp\cceGulUG.s 			page 31


 851              	HAL_FLASH_OB_Unlock:
 852              	.LFB133:
 486:C:/Users/073be/STM32Cube/Repository/STM32Cube_FW_F4_V1.23.0/Drivers/STM32F4xx_HAL_Driver/Src\stm32f4xx_hal_flash.c ****   if((FLASH->OPTCR & FLASH_OPTCR_OPTLOCK) != RESET)
 853              		.loc 1 486 0
 854              		.cfi_startproc
 855              		@ args = 0, pretend = 0, frame = 0
 856              		@ frame_needed = 0, uses_anonymous_args = 0
 857              		@ link register save eliminated.
 487:C:/Users/073be/STM32Cube/Repository/STM32Cube_FW_F4_V1.23.0/Drivers/STM32F4xx_HAL_Driver/Src\stm32f4xx_hal_flash.c ****   {
 858              		.loc 1 487 0
 859 0000 074B     		ldr	r3, .L80
 860 0002 5B69     		ldr	r3, [r3, #20]
 861 0004 13F0010F 		tst	r3, #1
 862 0008 07D0     		beq	.L79
 490:C:/Users/073be/STM32Cube/Repository/STM32Cube_FW_F4_V1.23.0/Drivers/STM32F4xx_HAL_Driver/Src\stm32f4xx_hal_flash.c ****     FLASH->OPTKEYR = FLASH_OPT_KEY2;
 863              		.loc 1 490 0
 864 000a 054B     		ldr	r3, .L80
 865 000c 054A     		ldr	r2, .L80+4
 866 000e 9A60     		str	r2, [r3, #8]
 491:C:/Users/073be/STM32Cube/Repository/STM32Cube_FW_F4_V1.23.0/Drivers/STM32F4xx_HAL_Driver/Src\stm32f4xx_hal_flash.c ****   }
 867              		.loc 1 491 0
 868 0010 02F14432 		add	r2, r2, #1145324612
 869 0014 9A60     		str	r2, [r3, #8]
 498:C:/Users/073be/STM32Cube/Repository/STM32Cube_FW_F4_V1.23.0/Drivers/STM32F4xx_HAL_Driver/Src\stm32f4xx_hal_flash.c **** }
 870              		.loc 1 498 0
 871 0016 0020     		movs	r0, #0
 872 0018 7047     		bx	lr
 873              	.L79:
 495:C:/Users/073be/STM32Cube/Repository/STM32Cube_FW_F4_V1.23.0/Drivers/STM32F4xx_HAL_Driver/Src\stm32f4xx_hal_flash.c ****   }  
 874              		.loc 1 495 0
 875 001a 0120     		movs	r0, #1
 499:C:/Users/073be/STM32Cube/Repository/STM32Cube_FW_F4_V1.23.0/Drivers/STM32F4xx_HAL_Driver/Src\stm32f4xx_hal_flash.c **** 
 876              		.loc 1 499 0
 877 001c 7047     		bx	lr
 878              	.L81:
 879 001e 00BF     		.align	2
 880              	.L80:
 881 0020 003C0240 		.word	1073888256
 882 0024 3B2A1908 		.word	135866939
 883              		.cfi_endproc
 884              	.LFE133:
 886              		.section	.text.HAL_FLASH_OB_Lock,"ax",%progbits
 887              		.align	1
 888              		.global	HAL_FLASH_OB_Lock
 889              		.syntax unified
 890              		.thumb
 891              		.thumb_func
 892              		.fpu fpv4-sp-d16
 894              	HAL_FLASH_OB_Lock:
 895              	.LFB134:
 506:C:/Users/073be/STM32Cube/Repository/STM32Cube_FW_F4_V1.23.0/Drivers/STM32F4xx_HAL_Driver/Src\stm32f4xx_hal_flash.c ****   /* Set the OPTLOCK Bit to lock the FLASH Option Byte Registers access */
 896              		.loc 1 506 0
 897              		.cfi_startproc
 898              		@ args = 0, pretend = 0, frame = 0
 899              		@ frame_needed = 0, uses_anonymous_args = 0
 900              		@ link register save eliminated.
 508:C:/Users/073be/STM32Cube/Repository/STM32Cube_FW_F4_V1.23.0/Drivers/STM32F4xx_HAL_Driver/Src\stm32f4xx_hal_flash.c ****   
ARM GAS  C:\Users\073be\AppData\Local\Temp\cceGulUG.s 			page 32


 901              		.loc 1 508 0
 902 0000 034A     		ldr	r2, .L83
 903 0002 5369     		ldr	r3, [r2, #20]
 904 0004 43F00103 		orr	r3, r3, #1
 905 0008 5361     		str	r3, [r2, #20]
 511:C:/Users/073be/STM32Cube/Repository/STM32Cube_FW_F4_V1.23.0/Drivers/STM32F4xx_HAL_Driver/Src\stm32f4xx_hal_flash.c **** 
 906              		.loc 1 511 0
 907 000a 0020     		movs	r0, #0
 908 000c 7047     		bx	lr
 909              	.L84:
 910 000e 00BF     		.align	2
 911              	.L83:
 912 0010 003C0240 		.word	1073888256
 913              		.cfi_endproc
 914              	.LFE134:
 916              		.section	.text.HAL_FLASH_GetError,"ax",%progbits
 917              		.align	1
 918              		.global	HAL_FLASH_GetError
 919              		.syntax unified
 920              		.thumb
 921              		.thumb_func
 922              		.fpu fpv4-sp-d16
 924              	HAL_FLASH_GetError:
 925              	.LFB136:
 555:C:/Users/073be/STM32Cube/Repository/STM32Cube_FW_F4_V1.23.0/Drivers/STM32F4xx_HAL_Driver/Src\stm32f4xx_hal_flash.c ****    return pFlash.ErrorCode;
 926              		.loc 1 555 0
 927              		.cfi_startproc
 928              		@ args = 0, pretend = 0, frame = 0
 929              		@ frame_needed = 0, uses_anonymous_args = 0
 930              		@ link register save eliminated.
 556:C:/Users/073be/STM32Cube/Repository/STM32Cube_FW_F4_V1.23.0/Drivers/STM32F4xx_HAL_Driver/Src\stm32f4xx_hal_flash.c **** }  
 931              		.loc 1 556 0
 932 0000 014B     		ldr	r3, .L86
 933 0002 D869     		ldr	r0, [r3, #28]
 557:C:/Users/073be/STM32Cube/Repository/STM32Cube_FW_F4_V1.23.0/Drivers/STM32F4xx_HAL_Driver/Src\stm32f4xx_hal_flash.c ****   
 934              		.loc 1 557 0
 935 0004 7047     		bx	lr
 936              	.L87:
 937 0006 00BF     		.align	2
 938              	.L86:
 939 0008 00000000 		.word	pFlash
 940              		.cfi_endproc
 941              	.LFE136:
 943              		.section	.text.FLASH_WaitForLastOperation,"ax",%progbits
 944              		.align	1
 945              		.global	FLASH_WaitForLastOperation
 946              		.syntax unified
 947              		.thumb
 948              		.thumb_func
 949              		.fpu fpv4-sp-d16
 951              	FLASH_WaitForLastOperation:
 952              	.LFB137:
 569:C:/Users/073be/STM32Cube/Repository/STM32Cube_FW_F4_V1.23.0/Drivers/STM32F4xx_HAL_Driver/Src\stm32f4xx_hal_flash.c ****   uint32_t tickstart = 0U;
 953              		.loc 1 569 0
 954              		.cfi_startproc
 955              		@ args = 0, pretend = 0, frame = 0
 956              		@ frame_needed = 0, uses_anonymous_args = 0
ARM GAS  C:\Users\073be\AppData\Local\Temp\cceGulUG.s 			page 33


 957              	.LVL63:
 958 0000 38B5     		push	{r3, r4, r5, lr}
 959              	.LCFI6:
 960              		.cfi_def_cfa_offset 16
 961              		.cfi_offset 3, -16
 962              		.cfi_offset 4, -12
 963              		.cfi_offset 5, -8
 964              		.cfi_offset 14, -4
 965 0002 0446     		mov	r4, r0
 966              	.LVL64:
 573:C:/Users/073be/STM32Cube/Repository/STM32Cube_FW_F4_V1.23.0/Drivers/STM32F4xx_HAL_Driver/Src\stm32f4xx_hal_flash.c ****   
 967              		.loc 1 573 0
 968 0004 154B     		ldr	r3, .L100
 969 0006 0022     		movs	r2, #0
 970 0008 DA61     		str	r2, [r3, #28]
 579:C:/Users/073be/STM32Cube/Repository/STM32Cube_FW_F4_V1.23.0/Drivers/STM32F4xx_HAL_Driver/Src\stm32f4xx_hal_flash.c **** 
 971              		.loc 1 579 0
 972 000a FFF7FEFF 		bl	HAL_GetTick
 973              	.LVL65:
 974 000e 0546     		mov	r5, r0
 975              	.LVL66:
 976              	.L90:
 581:C:/Users/073be/STM32Cube/Repository/STM32Cube_FW_F4_V1.23.0/Drivers/STM32F4xx_HAL_Driver/Src\stm32f4xx_hal_flash.c ****   { 
 977              		.loc 1 581 0
 978 0010 134B     		ldr	r3, .L100+4
 979 0012 DB68     		ldr	r3, [r3, #12]
 980 0014 13F4803F 		tst	r3, #65536
 981 0018 0AD0     		beq	.L98
 583:C:/Users/073be/STM32Cube/Repository/STM32Cube_FW_F4_V1.23.0/Drivers/STM32F4xx_HAL_Driver/Src\stm32f4xx_hal_flash.c ****     {
 982              		.loc 1 583 0
 983 001a B4F1FF3F 		cmp	r4, #-1
 984 001e F7D0     		beq	.L90
 585:C:/Users/073be/STM32Cube/Repository/STM32Cube_FW_F4_V1.23.0/Drivers/STM32F4xx_HAL_Driver/Src\stm32f4xx_hal_flash.c ****       {
 985              		.loc 1 585 0
 986 0020 CCB1     		cbz	r4, .L94
 585:C:/Users/073be/STM32Cube/Repository/STM32Cube_FW_F4_V1.23.0/Drivers/STM32F4xx_HAL_Driver/Src\stm32f4xx_hal_flash.c ****       {
 987              		.loc 1 585 0 is_stmt 0 discriminator 1
 988 0022 FFF7FEFF 		bl	HAL_GetTick
 989              	.LVL67:
 990 0026 401B     		subs	r0, r0, r5
 991 0028 A042     		cmp	r0, r4
 992 002a F1D9     		bls	.L90
 587:C:/Users/073be/STM32Cube/Repository/STM32Cube_FW_F4_V1.23.0/Drivers/STM32F4xx_HAL_Driver/Src\stm32f4xx_hal_flash.c ****       }
 993              		.loc 1 587 0 is_stmt 1
 994 002c 0320     		movs	r0, #3
 995 002e 0DE0     		b	.L91
 996              	.L98:
 593:C:/Users/073be/STM32Cube/Repository/STM32Cube_FW_F4_V1.23.0/Drivers/STM32F4xx_HAL_Driver/Src\stm32f4xx_hal_flash.c ****   {
 997              		.loc 1 593 0
 998 0030 0B4B     		ldr	r3, .L100+4
 999 0032 DB68     		ldr	r3, [r3, #12]
 1000 0034 13F0010F 		tst	r3, #1
 1001 0038 02D0     		beq	.L93
 596:C:/Users/073be/STM32Cube/Repository/STM32Cube_FW_F4_V1.23.0/Drivers/STM32F4xx_HAL_Driver/Src\stm32f4xx_hal_flash.c ****   }
 1002              		.loc 1 596 0
 1003 003a 094B     		ldr	r3, .L100+4
 1004 003c 0122     		movs	r2, #1
ARM GAS  C:\Users\073be\AppData\Local\Temp\cceGulUG.s 			page 34


 1005 003e DA60     		str	r2, [r3, #12]
 1006              	.L93:
 602:C:/Users/073be/STM32Cube/Repository/STM32Cube_FW_F4_V1.23.0/Drivers/STM32F4xx_HAL_Driver/Src\stm32f4xx_hal_flash.c ****                            FLASH_FLAG_PGPERR | FLASH_FLAG_PGSERR)) != RESET)
 1007              		.loc 1 602 0
 1008 0040 074B     		ldr	r3, .L100+4
 1009 0042 DB68     		ldr	r3, [r3, #12]
 1010 0044 13F0F20F 		tst	r3, #242
 1011 0048 01D1     		bne	.L99
 612:C:/Users/073be/STM32Cube/Repository/STM32Cube_FW_F4_V1.23.0/Drivers/STM32F4xx_HAL_Driver/Src\stm32f4xx_hal_flash.c ****   
 1012              		.loc 1 612 0
 1013 004a 0020     		movs	r0, #0
 1014              	.L91:
 614:C:/Users/073be/STM32Cube/Repository/STM32Cube_FW_F4_V1.23.0/Drivers/STM32F4xx_HAL_Driver/Src\stm32f4xx_hal_flash.c **** 
 1015              		.loc 1 614 0
 1016 004c 38BD     		pop	{r3, r4, r5, pc}
 1017              	.LVL68:
 1018              	.L99:
 607:C:/Users/073be/STM32Cube/Repository/STM32Cube_FW_F4_V1.23.0/Drivers/STM32F4xx_HAL_Driver/Src\stm32f4xx_hal_flash.c ****     return HAL_ERROR;
 1019              		.loc 1 607 0
 1020 004e FFF7FEFF 		bl	FLASH_SetErrorCode
 1021              	.LVL69:
 608:C:/Users/073be/STM32Cube/Repository/STM32Cube_FW_F4_V1.23.0/Drivers/STM32F4xx_HAL_Driver/Src\stm32f4xx_hal_flash.c ****   }
 1022              		.loc 1 608 0
 1023 0052 0120     		movs	r0, #1
 1024 0054 FAE7     		b	.L91
 1025              	.L94:
 587:C:/Users/073be/STM32Cube/Repository/STM32Cube_FW_F4_V1.23.0/Drivers/STM32F4xx_HAL_Driver/Src\stm32f4xx_hal_flash.c ****       }
 1026              		.loc 1 587 0
 1027 0056 0320     		movs	r0, #3
 1028 0058 F8E7     		b	.L91
 1029              	.L101:
 1030 005a 00BF     		.align	2
 1031              	.L100:
 1032 005c 00000000 		.word	pFlash
 1033 0060 003C0240 		.word	1073888256
 1034              		.cfi_endproc
 1035              	.LFE137:
 1037              		.section	.text.HAL_FLASH_Program,"ax",%progbits
 1038              		.align	1
 1039              		.global	HAL_FLASH_Program
 1040              		.syntax unified
 1041              		.thumb
 1042              		.thumb_func
 1043              		.fpu fpv4-sp-d16
 1045              	HAL_FLASH_Program:
 1046              	.LFB126:
 173:C:/Users/073be/STM32Cube/Repository/STM32Cube_FW_F4_V1.23.0/Drivers/STM32F4xx_HAL_Driver/Src\stm32f4xx_hal_flash.c ****   HAL_StatusTypeDef status = HAL_ERROR;
 1047              		.loc 1 173 0
 1048              		.cfi_startproc
 1049              		@ args = 0, pretend = 0, frame = 0
 1050              		@ frame_needed = 0, uses_anonymous_args = 0
 1051              	.LVL70:
 1052 0000 F8B5     		push	{r3, r4, r5, r6, r7, lr}
 1053              	.LCFI7:
 1054              		.cfi_def_cfa_offset 24
 1055              		.cfi_offset 3, -24
 1056              		.cfi_offset 4, -20
ARM GAS  C:\Users\073be\AppData\Local\Temp\cceGulUG.s 			page 35


 1057              		.cfi_offset 5, -16
 1058              		.cfi_offset 6, -12
 1059              		.cfi_offset 7, -8
 1060              		.cfi_offset 14, -4
 1061              	.LVL71:
 177:C:/Users/073be/STM32Cube/Repository/STM32Cube_FW_F4_V1.23.0/Drivers/STM32F4xx_HAL_Driver/Src\stm32f4xx_hal_flash.c ****   
 1062              		.loc 1 177 0
 1063 0002 214C     		ldr	r4, .L116
 1064 0004 247E     		ldrb	r4, [r4, #24]	@ zero_extendqisi2
 1065 0006 012C     		cmp	r4, #1
 1066 0008 3BD0     		beq	.L110
 1067 000a 1F46     		mov	r7, r3
 1068 000c 1646     		mov	r6, r2
 1069 000e 0D46     		mov	r5, r1
 1070 0010 0446     		mov	r4, r0
 177:C:/Users/073be/STM32Cube/Repository/STM32Cube_FW_F4_V1.23.0/Drivers/STM32F4xx_HAL_Driver/Src\stm32f4xx_hal_flash.c ****   
 1071              		.loc 1 177 0 is_stmt 0 discriminator 2
 1072 0012 1D4B     		ldr	r3, .L116
 1073 0014 0122     		movs	r2, #1
 1074              	.LVL72:
 1075 0016 1A76     		strb	r2, [r3, #24]
 180:C:/Users/073be/STM32Cube/Repository/STM32Cube_FW_F4_V1.23.0/Drivers/STM32F4xx_HAL_Driver/Src\stm32f4xx_hal_flash.c ****   
 1076              		.loc 1 180 0 is_stmt 1 discriminator 2
 1077 0018 0328     		cmp	r0, #3
 1078 001a 1ED8     		bhi	.L112
 1079              	.LVL73:
 1080              	.L104:
 183:C:/Users/073be/STM32Cube/Repository/STM32Cube_FW_F4_V1.23.0/Drivers/STM32F4xx_HAL_Driver/Src\stm32f4xx_hal_flash.c ****   
 1081              		.loc 1 183 0
 1082 001c 4CF25030 		movw	r0, #50000
 1083 0020 FFF7FEFF 		bl	FLASH_WaitForLastOperation
 1084              	.LVL74:
 185:C:/Users/073be/STM32Cube/Repository/STM32Cube_FW_F4_V1.23.0/Drivers/STM32F4xx_HAL_Driver/Src\stm32f4xx_hal_flash.c ****   {
 1085              		.loc 1 185 0
 1086 0024 0146     		mov	r1, r0
 1087 0026 98B9     		cbnz	r0, .L105
 187:C:/Users/073be/STM32Cube/Repository/STM32Cube_FW_F4_V1.23.0/Drivers/STM32F4xx_HAL_Driver/Src\stm32f4xx_hal_flash.c ****     {
 1088              		.loc 1 187 0
 1089 0028 E4B1     		cbz	r4, .L113
 192:C:/Users/073be/STM32Cube/Repository/STM32Cube_FW_F4_V1.23.0/Drivers/STM32F4xx_HAL_Driver/Src\stm32f4xx_hal_flash.c ****     {
 1090              		.loc 1 192 0
 1091 002a 012C     		cmp	r4, #1
 1092 002c 1FD0     		beq	.L114
 197:C:/Users/073be/STM32Cube/Repository/STM32Cube_FW_F4_V1.23.0/Drivers/STM32F4xx_HAL_Driver/Src\stm32f4xx_hal_flash.c ****     {
 1093              		.loc 1 197 0
 1094 002e 022C     		cmp	r4, #2
 1095 0030 22D0     		beq	.L115
 205:C:/Users/073be/STM32Cube/Repository/STM32Cube_FW_F4_V1.23.0/Drivers/STM32F4xx_HAL_Driver/Src\stm32f4xx_hal_flash.c ****     }
 1096              		.loc 1 205 0
 1097 0032 3246     		mov	r2, r6
 1098 0034 3B46     		mov	r3, r7
 1099 0036 2846     		mov	r0, r5
 1100              	.LVL75:
 1101 0038 FFF7FEFF 		bl	FLASH_Program_DoubleWord
 1102              	.LVL76:
 1103              	.L107:
 209:C:/Users/073be/STM32Cube/Repository/STM32Cube_FW_F4_V1.23.0/Drivers/STM32F4xx_HAL_Driver/Src\stm32f4xx_hal_flash.c ****     
ARM GAS  C:\Users\073be\AppData\Local\Temp\cceGulUG.s 			page 36


 1104              		.loc 1 209 0
 1105 003c 4CF25030 		movw	r0, #50000
 1106 0040 FFF7FEFF 		bl	FLASH_WaitForLastOperation
 1107              	.LVL77:
 1108 0044 0146     		mov	r1, r0
 1109              	.LVL78:
 212:C:/Users/073be/STM32Cube/Repository/STM32Cube_FW_F4_V1.23.0/Drivers/STM32F4xx_HAL_Driver/Src\stm32f4xx_hal_flash.c ****   }
 1110              		.loc 1 212 0
 1111 0046 114A     		ldr	r2, .L116+4
 1112 0048 1369     		ldr	r3, [r2, #16]
 1113 004a 23F00103 		bic	r3, r3, #1
 1114 004e 1361     		str	r3, [r2, #16]
 1115              	.LVL79:
 1116              	.L105:
 216:C:/Users/073be/STM32Cube/Repository/STM32Cube_FW_F4_V1.23.0/Drivers/STM32F4xx_HAL_Driver/Src\stm32f4xx_hal_flash.c ****   
 1117              		.loc 1 216 0
 1118 0050 0D4B     		ldr	r3, .L116
 1119 0052 0022     		movs	r2, #0
 1120 0054 1A76     		strb	r2, [r3, #24]
 1121              	.LVL80:
 1122              	.L103:
 219:C:/Users/073be/STM32Cube/Repository/STM32Cube_FW_F4_V1.23.0/Drivers/STM32F4xx_HAL_Driver/Src\stm32f4xx_hal_flash.c **** 
 1123              		.loc 1 219 0
 1124 0056 0846     		mov	r0, r1
 1125 0058 F8BD     		pop	{r3, r4, r5, r6, r7, pc}
 1126              	.LVL81:
 1127              	.L112:
 180:C:/Users/073be/STM32Cube/Repository/STM32Cube_FW_F4_V1.23.0/Drivers/STM32F4xx_HAL_Driver/Src\stm32f4xx_hal_flash.c ****   
 1128              		.loc 1 180 0 discriminator 1
 1129 005a B421     		movs	r1, #180
 1130              	.LVL82:
 1131 005c 0C48     		ldr	r0, .L116+8
 1132              	.LVL83:
 1133 005e FFF7FEFF 		bl	assert_failed
 1134              	.LVL84:
 1135 0062 DBE7     		b	.L104
 1136              	.LVL85:
 1137              	.L113:
 190:C:/Users/073be/STM32Cube/Repository/STM32Cube_FW_F4_V1.23.0/Drivers/STM32F4xx_HAL_Driver/Src\stm32f4xx_hal_flash.c ****     }
 1138              		.loc 1 190 0
 1139 0064 F1B2     		uxtb	r1, r6
 1140 0066 2846     		mov	r0, r5
 1141              	.LVL86:
 1142 0068 FFF7FEFF 		bl	FLASH_Program_Byte
 1143              	.LVL87:
 1144 006c E6E7     		b	.L107
 1145              	.LVL88:
 1146              	.L114:
 195:C:/Users/073be/STM32Cube/Repository/STM32Cube_FW_F4_V1.23.0/Drivers/STM32F4xx_HAL_Driver/Src\stm32f4xx_hal_flash.c ****     }
 1147              		.loc 1 195 0
 1148 006e B1B2     		uxth	r1, r6
 1149 0070 2846     		mov	r0, r5
 1150              	.LVL89:
 1151 0072 FFF7FEFF 		bl	FLASH_Program_HalfWord
 1152              	.LVL90:
 1153 0076 E1E7     		b	.L107
 1154              	.LVL91:
ARM GAS  C:\Users\073be\AppData\Local\Temp\cceGulUG.s 			page 37


 1155              	.L115:
 200:C:/Users/073be/STM32Cube/Repository/STM32Cube_FW_F4_V1.23.0/Drivers/STM32F4xx_HAL_Driver/Src\stm32f4xx_hal_flash.c ****     }
 1156              		.loc 1 200 0
 1157 0078 3146     		mov	r1, r6
 1158 007a 2846     		mov	r0, r5
 1159              	.LVL92:
 1160 007c FFF7FEFF 		bl	FLASH_Program_Word
 1161              	.LVL93:
 1162 0080 DCE7     		b	.L107
 1163              	.LVL94:
 1164              	.L110:
 177:C:/Users/073be/STM32Cube/Repository/STM32Cube_FW_F4_V1.23.0/Drivers/STM32F4xx_HAL_Driver/Src\stm32f4xx_hal_flash.c ****   
 1165              		.loc 1 177 0
 1166 0082 0221     		movs	r1, #2
 1167              	.LVL95:
 1168 0084 E7E7     		b	.L103
 1169              	.L117:
 1170 0086 00BF     		.align	2
 1171              	.L116:
 1172 0088 00000000 		.word	pFlash
 1173 008c 003C0240 		.word	1073888256
 1174 0090 00000000 		.word	.LC0
 1175              		.cfi_endproc
 1176              	.LFE126:
 1178              		.section	.text.HAL_FLASH_OB_Launch,"ax",%progbits
 1179              		.align	1
 1180              		.global	HAL_FLASH_OB_Launch
 1181              		.syntax unified
 1182              		.thumb
 1183              		.thumb_func
 1184              		.fpu fpv4-sp-d16
 1186              	HAL_FLASH_OB_Launch:
 1187              	.LFB135:
 518:C:/Users/073be/STM32Cube/Repository/STM32Cube_FW_F4_V1.23.0/Drivers/STM32F4xx_HAL_Driver/Src\stm32f4xx_hal_flash.c ****   /* Set the OPTSTRT bit in OPTCR register */
 1188              		.loc 1 518 0
 1189              		.cfi_startproc
 1190              		@ args = 0, pretend = 0, frame = 0
 1191              		@ frame_needed = 0, uses_anonymous_args = 0
 1192 0000 08B5     		push	{r3, lr}
 1193              	.LCFI8:
 1194              		.cfi_def_cfa_offset 8
 1195              		.cfi_offset 3, -8
 1196              		.cfi_offset 14, -4
 520:C:/Users/073be/STM32Cube/Repository/STM32Cube_FW_F4_V1.23.0/Drivers/STM32F4xx_HAL_Driver/Src\stm32f4xx_hal_flash.c **** 
 1197              		.loc 1 520 0
 1198 0002 054A     		ldr	r2, .L120
 1199 0004 1378     		ldrb	r3, [r2]	@ zero_extendqisi2
 1200 0006 43F00203 		orr	r3, r3, #2
 1201 000a 1370     		strb	r3, [r2]
 523:C:/Users/073be/STM32Cube/Repository/STM32Cube_FW_F4_V1.23.0/Drivers/STM32F4xx_HAL_Driver/Src\stm32f4xx_hal_flash.c **** }
 1202              		.loc 1 523 0
 1203 000c 4CF25030 		movw	r0, #50000
 1204 0010 FFF7FEFF 		bl	FLASH_WaitForLastOperation
 1205              	.LVL96:
 524:C:/Users/073be/STM32Cube/Repository/STM32Cube_FW_F4_V1.23.0/Drivers/STM32F4xx_HAL_Driver/Src\stm32f4xx_hal_flash.c **** 
 1206              		.loc 1 524 0
 1207 0014 08BD     		pop	{r3, pc}
ARM GAS  C:\Users\073be\AppData\Local\Temp\cceGulUG.s 			page 38


 1208              	.L121:
 1209 0016 00BF     		.align	2
 1210              	.L120:
 1211 0018 143C0240 		.word	1073888276
 1212              		.cfi_endproc
 1213              	.LFE135:
 1215              		.comm	pFlash,32,4
 1216              		.section	.rodata.FLASH_Program_Byte.str1.4,"aMS",%progbits,1
 1217              		.align	2
 1218              	.LC0:
 1219 0000 433A2F55 		.ascii	"C:/Users/073be/STM32Cube/Repository/STM32Cube_FW_F4"
 1219      73657273 
 1219      2F303733 
 1219      62652F53 
 1219      544D3332 
 1220 0033 5F56312E 		.ascii	"_V1.23.0/Drivers/STM32F4xx_HAL_Driver/Src/stm32f4xx"
 1220      32332E30 
 1220      2F447269 
 1220      76657273 
 1220      2F53544D 
 1221 0066 5F68616C 		.ascii	"_hal_flash.c\000"
 1221      5F666C61 
 1221      73682E63 
 1221      00
 1222              		.text
 1223              	.Letext0:
 1224              		.file 2 "c:\\program files (x86)\\gnu tools arm embedded\\7 2017-q4-major\\arm-none-eabi\\include\
 1225              		.file 3 "c:\\program files (x86)\\gnu tools arm embedded\\7 2017-q4-major\\arm-none-eabi\\include\
 1226              		.file 4 "C:/Users/073be/STM32Cube/Repository/STM32Cube_FW_F4_V1.23.0/Drivers/CMSIS/Include/core_cm
 1227              		.file 5 "C:/Users/073be/STM32Cube/Repository/STM32Cube_FW_F4_V1.23.0/Drivers/CMSIS/Device/ST/STM32
 1228              		.file 6 "C:/Users/073be/STM32Cube/Repository/STM32Cube_FW_F4_V1.23.0/Drivers/CMSIS/Device/ST/STM32
 1229              		.file 7 "c:\\program files (x86)\\gnu tools arm embedded\\7 2017-q4-major\\arm-none-eabi\\include\
 1230              		.file 8 "c:\\program files (x86)\\gnu tools arm embedded\\7 2017-q4-major\\arm-none-eabi\\include\
 1231              		.file 9 "c:\\program files (x86)\\gnu tools arm embedded\\7 2017-q4-major\\lib\\gcc\\arm-none-eabi
 1232              		.file 10 "c:\\program files (x86)\\gnu tools arm embedded\\7 2017-q4-major\\arm-none-eabi\\include
 1233              		.file 11 "C:/Users/073be/STM32Cube/Repository/STM32Cube_FW_F4_V1.23.0/Drivers/CMSIS/Device/ST/STM3
 1234              		.file 12 "C:/Users/073be/STM32Cube/Repository/STM32Cube_FW_F4_V1.23.0/Drivers/STM32F4xx_HAL_Driver
 1235              		.file 13 "C:/Users/073be/STM32Cube/Repository/STM32Cube_FW_F4_V1.23.0/Drivers/STM32F4xx_HAL_Driver
 1236              		.file 14 "Core/Inc/stm32f4xx_hal_conf.h"
 1237              		.file 15 "C:/Users/073be/STM32Cube/Repository/STM32Cube_FW_F4_V1.23.0/Drivers/STM32F4xx_HAL_Driver
 1238              		.file 16 "C:/Users/073be/STM32Cube/Repository/STM32Cube_FW_F4_V1.23.0/Drivers/STM32F4xx_HAL_Driver
ARM GAS  C:\Users\073be\AppData\Local\Temp\cceGulUG.s 			page 39


DEFINED SYMBOLS
                            *ABS*:00000000 stm32f4xx_hal_flash.c
C:\Users\073be\AppData\Local\Temp\cceGulUG.s:18     .text.FLASH_SetErrorCode:00000000 $t
C:\Users\073be\AppData\Local\Temp\cceGulUG.s:24     .text.FLASH_SetErrorCode:00000000 FLASH_SetErrorCode
C:\Users\073be\AppData\Local\Temp\cceGulUG.s:112    .text.FLASH_SetErrorCode:00000084 $d
                            *COM*:00000020 pFlash
C:\Users\073be\AppData\Local\Temp\cceGulUG.s:118    .text.FLASH_Program_Byte:00000000 $t
C:\Users\073be\AppData\Local\Temp\cceGulUG.s:124    .text.FLASH_Program_Byte:00000000 FLASH_Program_Byte
C:\Users\073be\AppData\Local\Temp\cceGulUG.s:180    .text.FLASH_Program_Byte:00000044 $d
C:\Users\073be\AppData\Local\Temp\cceGulUG.s:186    .text.FLASH_Program_HalfWord:00000000 $t
C:\Users\073be\AppData\Local\Temp\cceGulUG.s:192    .text.FLASH_Program_HalfWord:00000000 FLASH_Program_HalfWord
C:\Users\073be\AppData\Local\Temp\cceGulUG.s:249    .text.FLASH_Program_HalfWord:00000048 $d
C:\Users\073be\AppData\Local\Temp\cceGulUG.s:255    .text.FLASH_Program_Word:00000000 $t
C:\Users\073be\AppData\Local\Temp\cceGulUG.s:261    .text.FLASH_Program_Word:00000000 FLASH_Program_Word
C:\Users\073be\AppData\Local\Temp\cceGulUG.s:318    .text.FLASH_Program_Word:00000048 $d
C:\Users\073be\AppData\Local\Temp\cceGulUG.s:324    .text.FLASH_Program_DoubleWord:00000000 $t
C:\Users\073be\AppData\Local\Temp\cceGulUG.s:330    .text.FLASH_Program_DoubleWord:00000000 FLASH_Program_DoubleWord
C:\Users\073be\AppData\Local\Temp\cceGulUG.s:389    .text.FLASH_Program_DoubleWord:0000004c $d
C:\Users\073be\AppData\Local\Temp\cceGulUG.s:395    .text.HAL_FLASH_Program_IT:00000000 $t
C:\Users\073be\AppData\Local\Temp\cceGulUG.s:402    .text.HAL_FLASH_Program_IT:00000000 HAL_FLASH_Program_IT
C:\Users\073be\AppData\Local\Temp\cceGulUG.s:519    .text.HAL_FLASH_Program_IT:00000084 $d
C:\Users\073be\AppData\Local\Temp\cceGulUG.s:526    .text.HAL_FLASH_EndOfOperationCallback:00000000 $t
C:\Users\073be\AppData\Local\Temp\cceGulUG.s:533    .text.HAL_FLASH_EndOfOperationCallback:00000000 HAL_FLASH_EndOfOperationCallback
C:\Users\073be\AppData\Local\Temp\cceGulUG.s:547    .text.HAL_FLASH_OperationErrorCallback:00000000 $t
C:\Users\073be\AppData\Local\Temp\cceGulUG.s:554    .text.HAL_FLASH_OperationErrorCallback:00000000 HAL_FLASH_OperationErrorCallback
C:\Users\073be\AppData\Local\Temp\cceGulUG.s:568    .text.HAL_FLASH_IRQHandler:00000000 $t
C:\Users\073be\AppData\Local\Temp\cceGulUG.s:575    .text.HAL_FLASH_IRQHandler:00000000 HAL_FLASH_IRQHandler
C:\Users\073be\AppData\Local\Temp\cceGulUG.s:755    .text.HAL_FLASH_IRQHandler:000000ec $d
C:\Users\073be\AppData\Local\Temp\cceGulUG.s:761    .text.HAL_FLASH_Unlock:00000000 $t
C:\Users\073be\AppData\Local\Temp\cceGulUG.s:768    .text.HAL_FLASH_Unlock:00000000 HAL_FLASH_Unlock
C:\Users\073be\AppData\Local\Temp\cceGulUG.s:808    .text.HAL_FLASH_Unlock:00000028 $d
C:\Users\073be\AppData\Local\Temp\cceGulUG.s:814    .text.HAL_FLASH_Lock:00000000 $t
C:\Users\073be\AppData\Local\Temp\cceGulUG.s:821    .text.HAL_FLASH_Lock:00000000 HAL_FLASH_Lock
C:\Users\073be\AppData\Local\Temp\cceGulUG.s:839    .text.HAL_FLASH_Lock:00000010 $d
C:\Users\073be\AppData\Local\Temp\cceGulUG.s:844    .text.HAL_FLASH_OB_Unlock:00000000 $t
C:\Users\073be\AppData\Local\Temp\cceGulUG.s:851    .text.HAL_FLASH_OB_Unlock:00000000 HAL_FLASH_OB_Unlock
C:\Users\073be\AppData\Local\Temp\cceGulUG.s:881    .text.HAL_FLASH_OB_Unlock:00000020 $d
C:\Users\073be\AppData\Local\Temp\cceGulUG.s:887    .text.HAL_FLASH_OB_Lock:00000000 $t
C:\Users\073be\AppData\Local\Temp\cceGulUG.s:894    .text.HAL_FLASH_OB_Lock:00000000 HAL_FLASH_OB_Lock
C:\Users\073be\AppData\Local\Temp\cceGulUG.s:912    .text.HAL_FLASH_OB_Lock:00000010 $d
C:\Users\073be\AppData\Local\Temp\cceGulUG.s:917    .text.HAL_FLASH_GetError:00000000 $t
C:\Users\073be\AppData\Local\Temp\cceGulUG.s:924    .text.HAL_FLASH_GetError:00000000 HAL_FLASH_GetError
C:\Users\073be\AppData\Local\Temp\cceGulUG.s:939    .text.HAL_FLASH_GetError:00000008 $d
C:\Users\073be\AppData\Local\Temp\cceGulUG.s:944    .text.FLASH_WaitForLastOperation:00000000 $t
C:\Users\073be\AppData\Local\Temp\cceGulUG.s:951    .text.FLASH_WaitForLastOperation:00000000 FLASH_WaitForLastOperation
C:\Users\073be\AppData\Local\Temp\cceGulUG.s:1032   .text.FLASH_WaitForLastOperation:0000005c $d
C:\Users\073be\AppData\Local\Temp\cceGulUG.s:1038   .text.HAL_FLASH_Program:00000000 $t
C:\Users\073be\AppData\Local\Temp\cceGulUG.s:1045   .text.HAL_FLASH_Program:00000000 HAL_FLASH_Program
C:\Users\073be\AppData\Local\Temp\cceGulUG.s:1172   .text.HAL_FLASH_Program:00000088 $d
C:\Users\073be\AppData\Local\Temp\cceGulUG.s:1179   .text.HAL_FLASH_OB_Launch:00000000 $t
C:\Users\073be\AppData\Local\Temp\cceGulUG.s:1186   .text.HAL_FLASH_OB_Launch:00000000 HAL_FLASH_OB_Launch
C:\Users\073be\AppData\Local\Temp\cceGulUG.s:1211   .text.HAL_FLASH_OB_Launch:00000018 $d
C:\Users\073be\AppData\Local\Temp\cceGulUG.s:1217   .rodata.FLASH_Program_Byte.str1.4:00000000 $d

UNDEFINED SYMBOLS
assert_failed
FLASH_Erase_Sector
ARM GAS  C:\Users\073be\AppData\Local\Temp\cceGulUG.s 			page 40


FLASH_FlushCaches
HAL_GetTick
