ARM GAS  C:\Users\073be\AppData\Local\Temp\ccL82i7N.s 			page 1


   1              		.cpu cortex-m4
   2              		.eabi_attribute 27, 1
   3              		.eabi_attribute 28, 1
   4              		.eabi_attribute 20, 1
   5              		.eabi_attribute 21, 1
   6              		.eabi_attribute 23, 3
   7              		.eabi_attribute 24, 1
   8              		.eabi_attribute 25, 1
   9              		.eabi_attribute 26, 1
  10              		.eabi_attribute 30, 1
  11              		.eabi_attribute 34, 1
  12              		.eabi_attribute 18, 4
  13              		.file	"usart.c"
  14              		.text
  15              	.Ltext0:
  16              		.cfi_sections	.debug_frame
  17              		.section	.text.MX_UART4_Init,"ax",%progbits
  18              		.align	1
  19              		.global	MX_UART4_Init
  20              		.syntax unified
  21              		.thumb
  22              		.thumb_func
  23              		.fpu fpv4-sp-d16
  25              	MX_UART4_Init:
  26              	.LFB126:
  27              		.file 1 "Core/Src/periphs/usart.c"
   1:Core/Src/periphs/usart.c **** /**
   2:Core/Src/periphs/usart.c ****   ******************************************************************************
   3:Core/Src/periphs/usart.c ****   * File Name          : USART.c
   4:Core/Src/periphs/usart.c ****   * Description        : This file provides code for the configuration
   5:Core/Src/periphs/usart.c ****   *                      of the USART instances.
   6:Core/Src/periphs/usart.c ****   ******************************************************************************
   7:Core/Src/periphs/usart.c ****   * This notice applies to any and all portions of this file
   8:Core/Src/periphs/usart.c ****   * that are not between comment pairs USER CODE BEGIN and
   9:Core/Src/periphs/usart.c ****   * USER CODE END. Other portions of this file, whether 
  10:Core/Src/periphs/usart.c ****   * inserted by the user or by software development tools
  11:Core/Src/periphs/usart.c ****   * are owned by their respective copyright owners.
  12:Core/Src/periphs/usart.c ****   *
  13:Core/Src/periphs/usart.c ****   * Copyright (c) 2018 STMicroelectronics International N.V. 
  14:Core/Src/periphs/usart.c ****   * All rights reserved.
  15:Core/Src/periphs/usart.c ****   *
  16:Core/Src/periphs/usart.c ****   * Redistribution and use in source and binary forms, with or without 
  17:Core/Src/periphs/usart.c ****   * modification, are permitted, provided that the following conditions are met:
  18:Core/Src/periphs/usart.c ****   *
  19:Core/Src/periphs/usart.c ****   * 1. Redistribution of source code must retain the above copyright notice, 
  20:Core/Src/periphs/usart.c ****   *    this list of conditions and the following disclaimer.
  21:Core/Src/periphs/usart.c ****   * 2. Redistributions in binary form must reproduce the above copyright notice,
  22:Core/Src/periphs/usart.c ****   *    this list of conditions and the following disclaimer in the documentation
  23:Core/Src/periphs/usart.c ****   *    and/or other materials provided with the distribution.
  24:Core/Src/periphs/usart.c ****   * 3. Neither the name of STMicroelectronics nor the names of other 
  25:Core/Src/periphs/usart.c ****   *    contributors to this software may be used to endorse or promote products 
  26:Core/Src/periphs/usart.c ****   *    derived from this software without specific written permission.
  27:Core/Src/periphs/usart.c ****   * 4. This software, including modifications and/or derivative works of this 
  28:Core/Src/periphs/usart.c ****   *    software, must execute solely and exclusively on microcontroller or
  29:Core/Src/periphs/usart.c ****   *    microprocessor devices manufactured by or for STMicroelectronics.
  30:Core/Src/periphs/usart.c ****   * 5. Redistribution and use of this software other than as permitted under 
  31:Core/Src/periphs/usart.c ****   *    this license is void and will automatically terminate your rights under 
ARM GAS  C:\Users\073be\AppData\Local\Temp\ccL82i7N.s 			page 2


  32:Core/Src/periphs/usart.c ****   *    this license. 
  33:Core/Src/periphs/usart.c ****   *
  34:Core/Src/periphs/usart.c ****   * THIS SOFTWARE IS PROVIDED BY STMICROELECTRONICS AND CONTRIBUTORS "AS IS" 
  35:Core/Src/periphs/usart.c ****   * AND ANY EXPRESS, IMPLIED OR STATUTORY WARRANTIES, INCLUDING, BUT NOT 
  36:Core/Src/periphs/usart.c ****   * LIMITED TO, THE IMPLIED WARRANTIES OF MERCHANTABILITY, FITNESS FOR A 
  37:Core/Src/periphs/usart.c ****   * PARTICULAR PURPOSE AND NON-INFRINGEMENT OF THIRD PARTY INTELLECTUAL PROPERTY
  38:Core/Src/periphs/usart.c ****   * RIGHTS ARE DISCLAIMED TO THE FULLEST EXTENT PERMITTED BY LAW. IN NO EVENT 
  39:Core/Src/periphs/usart.c ****   * SHALL STMICROELECTRONICS OR CONTRIBUTORS BE LIABLE FOR ANY DIRECT, INDIRECT,
  40:Core/Src/periphs/usart.c ****   * INCIDENTAL, SPECIAL, EXEMPLARY, OR CONSEQUENTIAL DAMAGES (INCLUDING, BUT NOT
  41:Core/Src/periphs/usart.c ****   * LIMITED TO, PROCUREMENT OF SUBSTITUTE GOODS OR SERVICES; LOSS OF USE, DATA, 
  42:Core/Src/periphs/usart.c ****   * OR PROFITS; OR BUSINESS INTERRUPTION) HOWEVER CAUSED AND ON ANY THEORY OF 
  43:Core/Src/periphs/usart.c ****   * LIABILITY, WHETHER IN CONTRACT, STRICT LIABILITY, OR TORT (INCLUDING 
  44:Core/Src/periphs/usart.c ****   * NEGLIGENCE OR OTHERWISE) ARISING IN ANY WAY OUT OF THE USE OF THIS SOFTWARE,
  45:Core/Src/periphs/usart.c ****   * EVEN IF ADVISED OF THE POSSIBILITY OF SUCH DAMAGE.
  46:Core/Src/periphs/usart.c ****   *
  47:Core/Src/periphs/usart.c ****   ******************************************************************************
  48:Core/Src/periphs/usart.c ****   */
  49:Core/Src/periphs/usart.c **** 
  50:Core/Src/periphs/usart.c **** /* Includes ------------------------------------------------------------------*/
  51:Core/Src/periphs/usart.c **** #include "usart.h"
  52:Core/Src/periphs/usart.c **** 
  53:Core/Src/periphs/usart.c **** /* USER CODE BEGIN 0 */
  54:Core/Src/periphs/usart.c **** 
  55:Core/Src/periphs/usart.c **** /* USER CODE END 0 */
  56:Core/Src/periphs/usart.c **** 
  57:Core/Src/periphs/usart.c **** UART_HandleTypeDef huart4;
  58:Core/Src/periphs/usart.c **** UART_HandleTypeDef huart2;
  59:Core/Src/periphs/usart.c **** UART_HandleTypeDef huart3;
  60:Core/Src/periphs/usart.c **** DMA_HandleTypeDef hdma_usart3_rx;
  61:Core/Src/periphs/usart.c **** 
  62:Core/Src/periphs/usart.c **** /* UART4 init function */
  63:Core/Src/periphs/usart.c **** void MX_UART4_Init(void)
  64:Core/Src/periphs/usart.c **** {
  28              		.loc 1 64 0
  29              		.cfi_startproc
  30              		@ args = 0, pretend = 0, frame = 0
  31              		@ frame_needed = 0, uses_anonymous_args = 0
  32 0000 08B5     		push	{r3, lr}
  33              	.LCFI0:
  34              		.cfi_def_cfa_offset 8
  35              		.cfi_offset 3, -8
  36              		.cfi_offset 14, -4
  65:Core/Src/periphs/usart.c **** 
  66:Core/Src/periphs/usart.c ****   huart4.Instance = UART4;
  37              		.loc 1 66 0
  38 0002 0A48     		ldr	r0, .L5
  39 0004 0A4B     		ldr	r3, .L5+4
  40 0006 0360     		str	r3, [r0]
  67:Core/Src/periphs/usart.c ****   huart4.Init.BaudRate = 115200;
  41              		.loc 1 67 0
  42 0008 4FF4E133 		mov	r3, #115200
  43 000c 4360     		str	r3, [r0, #4]
  68:Core/Src/periphs/usart.c ****   huart4.Init.WordLength = UART_WORDLENGTH_8B;
  44              		.loc 1 68 0
  45 000e 0023     		movs	r3, #0
  46 0010 8360     		str	r3, [r0, #8]
  69:Core/Src/periphs/usart.c ****   huart4.Init.StopBits = UART_STOPBITS_1;
ARM GAS  C:\Users\073be\AppData\Local\Temp\ccL82i7N.s 			page 3


  47              		.loc 1 69 0
  48 0012 C360     		str	r3, [r0, #12]
  70:Core/Src/periphs/usart.c ****   huart4.Init.Parity = UART_PARITY_NONE;
  49              		.loc 1 70 0
  50 0014 0361     		str	r3, [r0, #16]
  71:Core/Src/periphs/usart.c ****   huart4.Init.Mode = UART_MODE_TX_RX;
  51              		.loc 1 71 0
  52 0016 0C22     		movs	r2, #12
  53 0018 4261     		str	r2, [r0, #20]
  72:Core/Src/periphs/usart.c ****   huart4.Init.HwFlowCtl = UART_HWCONTROL_NONE;
  54              		.loc 1 72 0
  55 001a 8361     		str	r3, [r0, #24]
  73:Core/Src/periphs/usart.c ****   huart4.Init.OverSampling = UART_OVERSAMPLING_16;
  56              		.loc 1 73 0
  57 001c C361     		str	r3, [r0, #28]
  74:Core/Src/periphs/usart.c ****   if (HAL_UART_Init(&huart4) != HAL_OK)
  58              		.loc 1 74 0
  59 001e FFF7FEFF 		bl	HAL_UART_Init
  60              	.LVL0:
  61 0022 00B9     		cbnz	r0, .L4
  62              	.L1:
  75:Core/Src/periphs/usart.c ****   {
  76:Core/Src/periphs/usart.c ****     Error_Handler();
  77:Core/Src/periphs/usart.c ****   }
  78:Core/Src/periphs/usart.c **** 
  79:Core/Src/periphs/usart.c **** }
  63              		.loc 1 79 0
  64 0024 08BD     		pop	{r3, pc}
  65              	.L4:
  76:Core/Src/periphs/usart.c ****   }
  66              		.loc 1 76 0
  67 0026 FFF7FEFF 		bl	Error_Handler
  68              	.LVL1:
  69              		.loc 1 79 0
  70 002a FBE7     		b	.L1
  71              	.L6:
  72              		.align	2
  73              	.L5:
  74 002c 00000000 		.word	huart4
  75 0030 004C0040 		.word	1073761280
  76              		.cfi_endproc
  77              	.LFE126:
  79              		.section	.text.MX_USART2_UART_Init,"ax",%progbits
  80              		.align	1
  81              		.global	MX_USART2_UART_Init
  82              		.syntax unified
  83              		.thumb
  84              		.thumb_func
  85              		.fpu fpv4-sp-d16
  87              	MX_USART2_UART_Init:
  88              	.LFB127:
  80:Core/Src/periphs/usart.c **** /* USART2 init function */
  81:Core/Src/periphs/usart.c **** 
  82:Core/Src/periphs/usart.c **** void MX_USART2_UART_Init(void)
  83:Core/Src/periphs/usart.c **** {
  89              		.loc 1 83 0
  90              		.cfi_startproc
ARM GAS  C:\Users\073be\AppData\Local\Temp\ccL82i7N.s 			page 4


  91              		@ args = 0, pretend = 0, frame = 0
  92              		@ frame_needed = 0, uses_anonymous_args = 0
  93 0000 08B5     		push	{r3, lr}
  94              	.LCFI1:
  95              		.cfi_def_cfa_offset 8
  96              		.cfi_offset 3, -8
  97              		.cfi_offset 14, -4
  84:Core/Src/periphs/usart.c **** 
  85:Core/Src/periphs/usart.c ****   huart2.Instance = USART2;
  98              		.loc 1 85 0
  99 0002 0A48     		ldr	r0, .L11
 100 0004 0A4B     		ldr	r3, .L11+4
 101 0006 0360     		str	r3, [r0]
  86:Core/Src/periphs/usart.c ****   huart2.Init.BaudRate = 115200;
 102              		.loc 1 86 0
 103 0008 4FF4E133 		mov	r3, #115200
 104 000c 4360     		str	r3, [r0, #4]
  87:Core/Src/periphs/usart.c ****   huart2.Init.WordLength = UART_WORDLENGTH_8B;
 105              		.loc 1 87 0
 106 000e 0023     		movs	r3, #0
 107 0010 8360     		str	r3, [r0, #8]
  88:Core/Src/periphs/usart.c ****   huart2.Init.StopBits = UART_STOPBITS_1;
 108              		.loc 1 88 0
 109 0012 C360     		str	r3, [r0, #12]
  89:Core/Src/periphs/usart.c ****   huart2.Init.Parity = UART_PARITY_NONE;
 110              		.loc 1 89 0
 111 0014 0361     		str	r3, [r0, #16]
  90:Core/Src/periphs/usart.c ****   huart2.Init.Mode = UART_MODE_TX_RX;
 112              		.loc 1 90 0
 113 0016 0C22     		movs	r2, #12
 114 0018 4261     		str	r2, [r0, #20]
  91:Core/Src/periphs/usart.c ****   huart2.Init.HwFlowCtl = UART_HWCONTROL_NONE;
 115              		.loc 1 91 0
 116 001a 8361     		str	r3, [r0, #24]
  92:Core/Src/periphs/usart.c ****   huart2.Init.OverSampling = UART_OVERSAMPLING_16;
 117              		.loc 1 92 0
 118 001c C361     		str	r3, [r0, #28]
  93:Core/Src/periphs/usart.c ****   if (HAL_UART_Init(&huart2) != HAL_OK)
 119              		.loc 1 93 0
 120 001e FFF7FEFF 		bl	HAL_UART_Init
 121              	.LVL2:
 122 0022 00B9     		cbnz	r0, .L10
 123              	.L7:
  94:Core/Src/periphs/usart.c ****   {
  95:Core/Src/periphs/usart.c ****     Error_Handler();
  96:Core/Src/periphs/usart.c ****   }
  97:Core/Src/periphs/usart.c **** 
  98:Core/Src/periphs/usart.c **** }
 124              		.loc 1 98 0
 125 0024 08BD     		pop	{r3, pc}
 126              	.L10:
  95:Core/Src/periphs/usart.c ****   }
 127              		.loc 1 95 0
 128 0026 FFF7FEFF 		bl	Error_Handler
 129              	.LVL3:
 130              		.loc 1 98 0
 131 002a FBE7     		b	.L7
ARM GAS  C:\Users\073be\AppData\Local\Temp\ccL82i7N.s 			page 5


 132              	.L12:
 133              		.align	2
 134              	.L11:
 135 002c 00000000 		.word	huart2
 136 0030 00440040 		.word	1073759232
 137              		.cfi_endproc
 138              	.LFE127:
 140              		.section	.text.MX_USART3_UART_Init,"ax",%progbits
 141              		.align	1
 142              		.global	MX_USART3_UART_Init
 143              		.syntax unified
 144              		.thumb
 145              		.thumb_func
 146              		.fpu fpv4-sp-d16
 148              	MX_USART3_UART_Init:
 149              	.LFB128:
  99:Core/Src/periphs/usart.c **** /* USART3 init function */
 100:Core/Src/periphs/usart.c **** 
 101:Core/Src/periphs/usart.c **** void MX_USART3_UART_Init(void)
 102:Core/Src/periphs/usart.c **** {
 150              		.loc 1 102 0
 151              		.cfi_startproc
 152              		@ args = 0, pretend = 0, frame = 0
 153              		@ frame_needed = 0, uses_anonymous_args = 0
 154 0000 08B5     		push	{r3, lr}
 155              	.LCFI2:
 156              		.cfi_def_cfa_offset 8
 157              		.cfi_offset 3, -8
 158              		.cfi_offset 14, -4
 103:Core/Src/periphs/usart.c **** 
 104:Core/Src/periphs/usart.c ****   huart3.Instance = USART3;
 159              		.loc 1 104 0
 160 0002 0A48     		ldr	r0, .L17
 161 0004 0A4B     		ldr	r3, .L17+4
 162 0006 0360     		str	r3, [r0]
 105:Core/Src/periphs/usart.c ****   huart3.Init.BaudRate = 115200;
 163              		.loc 1 105 0
 164 0008 4FF4E133 		mov	r3, #115200
 165 000c 4360     		str	r3, [r0, #4]
 106:Core/Src/periphs/usart.c ****   huart3.Init.WordLength = UART_WORDLENGTH_8B;
 166              		.loc 1 106 0
 167 000e 0023     		movs	r3, #0
 168 0010 8360     		str	r3, [r0, #8]
 107:Core/Src/periphs/usart.c ****   huart3.Init.StopBits = UART_STOPBITS_1;
 169              		.loc 1 107 0
 170 0012 C360     		str	r3, [r0, #12]
 108:Core/Src/periphs/usart.c ****   huart3.Init.Parity = UART_PARITY_NONE;
 171              		.loc 1 108 0
 172 0014 0361     		str	r3, [r0, #16]
 109:Core/Src/periphs/usart.c ****   huart3.Init.Mode = UART_MODE_TX_RX;
 173              		.loc 1 109 0
 174 0016 0C22     		movs	r2, #12
 175 0018 4261     		str	r2, [r0, #20]
 110:Core/Src/periphs/usart.c ****   huart3.Init.HwFlowCtl = UART_HWCONTROL_NONE;
 176              		.loc 1 110 0
 177 001a 8361     		str	r3, [r0, #24]
 111:Core/Src/periphs/usart.c ****   huart3.Init.OverSampling = UART_OVERSAMPLING_16;
ARM GAS  C:\Users\073be\AppData\Local\Temp\ccL82i7N.s 			page 6


 178              		.loc 1 111 0
 179 001c C361     		str	r3, [r0, #28]
 112:Core/Src/periphs/usart.c ****   if (HAL_UART_Init(&huart3) != HAL_OK)
 180              		.loc 1 112 0
 181 001e FFF7FEFF 		bl	HAL_UART_Init
 182              	.LVL4:
 183 0022 00B9     		cbnz	r0, .L16
 184              	.L13:
 113:Core/Src/periphs/usart.c ****   {
 114:Core/Src/periphs/usart.c ****     Error_Handler();
 115:Core/Src/periphs/usart.c ****   }
 116:Core/Src/periphs/usart.c **** 
 117:Core/Src/periphs/usart.c **** }
 185              		.loc 1 117 0
 186 0024 08BD     		pop	{r3, pc}
 187              	.L16:
 114:Core/Src/periphs/usart.c ****   }
 188              		.loc 1 114 0
 189 0026 FFF7FEFF 		bl	Error_Handler
 190              	.LVL5:
 191              		.loc 1 117 0
 192 002a FBE7     		b	.L13
 193              	.L18:
 194              		.align	2
 195              	.L17:
 196 002c 00000000 		.word	huart3
 197 0030 00480040 		.word	1073760256
 198              		.cfi_endproc
 199              	.LFE128:
 201              		.section	.text.HAL_UART_MspInit,"ax",%progbits
 202              		.align	1
 203              		.global	HAL_UART_MspInit
 204              		.syntax unified
 205              		.thumb
 206              		.thumb_func
 207              		.fpu fpv4-sp-d16
 209              	HAL_UART_MspInit:
 210              	.LFB129:
 118:Core/Src/periphs/usart.c **** 
 119:Core/Src/periphs/usart.c **** void HAL_UART_MspInit(UART_HandleTypeDef* uartHandle)
 120:Core/Src/periphs/usart.c **** {
 211              		.loc 1 120 0
 212              		.cfi_startproc
 213              		@ args = 0, pretend = 0, frame = 48
 214              		@ frame_needed = 0, uses_anonymous_args = 0
 215              	.LVL6:
 216 0000 30B5     		push	{r4, r5, lr}
 217              	.LCFI3:
 218              		.cfi_def_cfa_offset 12
 219              		.cfi_offset 4, -12
 220              		.cfi_offset 5, -8
 221              		.cfi_offset 14, -4
 222 0002 8DB0     		sub	sp, sp, #52
 223              	.LCFI4:
 224              		.cfi_def_cfa_offset 64
 121:Core/Src/periphs/usart.c **** 
 122:Core/Src/periphs/usart.c ****   GPIO_InitTypeDef GPIO_InitStruct = {0};
ARM GAS  C:\Users\073be\AppData\Local\Temp\ccL82i7N.s 			page 7


 225              		.loc 1 122 0
 226 0004 0023     		movs	r3, #0
 227 0006 0793     		str	r3, [sp, #28]
 228 0008 0893     		str	r3, [sp, #32]
 229 000a 0993     		str	r3, [sp, #36]
 230 000c 0A93     		str	r3, [sp, #40]
 231 000e 0B93     		str	r3, [sp, #44]
 123:Core/Src/periphs/usart.c ****   if(uartHandle->Instance==UART4)
 232              		.loc 1 123 0
 233 0010 0368     		ldr	r3, [r0]
 234 0012 4D4A     		ldr	r2, .L29
 235 0014 9342     		cmp	r3, r2
 236 0016 08D0     		beq	.L25
 237 0018 0446     		mov	r4, r0
 124:Core/Src/periphs/usart.c ****   {
 125:Core/Src/periphs/usart.c ****   /* USER CODE BEGIN UART4_MspInit 0 */
 126:Core/Src/periphs/usart.c **** 
 127:Core/Src/periphs/usart.c ****   /* USER CODE END UART4_MspInit 0 */
 128:Core/Src/periphs/usart.c ****     /* UART4 clock enable */
 129:Core/Src/periphs/usart.c ****     __HAL_RCC_UART4_CLK_ENABLE();
 130:Core/Src/periphs/usart.c ****   
 131:Core/Src/periphs/usart.c ****     __HAL_RCC_GPIOC_CLK_ENABLE();
 132:Core/Src/periphs/usart.c ****     /**UART4 GPIO Configuration    
 133:Core/Src/periphs/usart.c ****     PC10     ------> UART4_TX
 134:Core/Src/periphs/usart.c ****     PC11     ------> UART4_RX 
 135:Core/Src/periphs/usart.c ****     */
 136:Core/Src/periphs/usart.c ****     GPIO_InitStruct.Pin = GPIO_PIN_10|GPIO_PIN_11;
 137:Core/Src/periphs/usart.c ****     GPIO_InitStruct.Mode = GPIO_MODE_AF_PP;
 138:Core/Src/periphs/usart.c ****     GPIO_InitStruct.Pull = GPIO_PULLUP;
 139:Core/Src/periphs/usart.c ****     GPIO_InitStruct.Speed = GPIO_SPEED_FREQ_VERY_HIGH;
 140:Core/Src/periphs/usart.c ****     GPIO_InitStruct.Alternate = GPIO_AF8_UART4;
 141:Core/Src/periphs/usart.c ****     HAL_GPIO_Init(GPIOC, &GPIO_InitStruct);
 142:Core/Src/periphs/usart.c **** 
 143:Core/Src/periphs/usart.c ****   /* USER CODE BEGIN UART4_MspInit 1 */
 144:Core/Src/periphs/usart.c **** 
 145:Core/Src/periphs/usart.c ****   /* USER CODE END UART4_MspInit 1 */
 146:Core/Src/periphs/usart.c ****   }
 147:Core/Src/periphs/usart.c ****   else if(uartHandle->Instance==USART2)
 238              		.loc 1 147 0
 239 001a 4C4A     		ldr	r2, .L29+4
 240 001c 9342     		cmp	r3, r2
 241 001e 2AD0     		beq	.L26
 148:Core/Src/periphs/usart.c ****   {
 149:Core/Src/periphs/usart.c ****   /* USER CODE BEGIN USART2_MspInit 0 */
 150:Core/Src/periphs/usart.c **** 
 151:Core/Src/periphs/usart.c ****   /* USER CODE END USART2_MspInit 0 */
 152:Core/Src/periphs/usart.c ****     /* USART2 clock enable */
 153:Core/Src/periphs/usart.c ****     __HAL_RCC_USART2_CLK_ENABLE();
 154:Core/Src/periphs/usart.c ****   
 155:Core/Src/periphs/usart.c ****     __HAL_RCC_GPIOD_CLK_ENABLE();
 156:Core/Src/periphs/usart.c ****     /**USART2 GPIO Configuration    
 157:Core/Src/periphs/usart.c ****     PD5     ------> USART2_TX
 158:Core/Src/periphs/usart.c ****     PD6     ------> USART2_RX 
 159:Core/Src/periphs/usart.c ****     */
 160:Core/Src/periphs/usart.c ****     GPIO_InitStruct.Pin = GPIO_PIN_5|GPIO_PIN_6;
 161:Core/Src/periphs/usart.c ****     GPIO_InitStruct.Mode = GPIO_MODE_AF_PP;
 162:Core/Src/periphs/usart.c ****     GPIO_InitStruct.Pull = GPIO_PULLUP;
ARM GAS  C:\Users\073be\AppData\Local\Temp\ccL82i7N.s 			page 8


 163:Core/Src/periphs/usart.c ****     GPIO_InitStruct.Speed = GPIO_SPEED_FREQ_VERY_HIGH;
 164:Core/Src/periphs/usart.c ****     GPIO_InitStruct.Alternate = GPIO_AF7_USART2;
 165:Core/Src/periphs/usart.c ****     HAL_GPIO_Init(GPIOD, &GPIO_InitStruct);
 166:Core/Src/periphs/usart.c **** 
 167:Core/Src/periphs/usart.c ****   /* USER CODE BEGIN USART2_MspInit 1 */
 168:Core/Src/periphs/usart.c **** 
 169:Core/Src/periphs/usart.c ****   /* USER CODE END USART2_MspInit 1 */
 170:Core/Src/periphs/usart.c ****   }
 171:Core/Src/periphs/usart.c ****   else if(uartHandle->Instance==USART3)
 242              		.loc 1 171 0
 243 0020 4B4A     		ldr	r2, .L29+8
 244 0022 9342     		cmp	r3, r2
 245 0024 4CD0     		beq	.L27
 246              	.LVL7:
 247              	.L19:
 172:Core/Src/periphs/usart.c ****   {
 173:Core/Src/periphs/usart.c ****   /* USER CODE BEGIN USART3_MspInit 0 */
 174:Core/Src/periphs/usart.c **** 
 175:Core/Src/periphs/usart.c ****   /* USER CODE END USART3_MspInit 0 */
 176:Core/Src/periphs/usart.c ****     /* USART3 clock enable */
 177:Core/Src/periphs/usart.c ****     __HAL_RCC_USART3_CLK_ENABLE();
 178:Core/Src/periphs/usart.c ****   
 179:Core/Src/periphs/usart.c ****     __HAL_RCC_GPIOD_CLK_ENABLE();
 180:Core/Src/periphs/usart.c ****     /**USART3 GPIO Configuration    
 181:Core/Src/periphs/usart.c ****     PD8     ------> USART3_TX
 182:Core/Src/periphs/usart.c ****     PD9     ------> USART3_RX 
 183:Core/Src/periphs/usart.c ****     */
 184:Core/Src/periphs/usart.c ****     GPIO_InitStruct.Pin = GPIO_PIN_8|GPIO_PIN_9;
 185:Core/Src/periphs/usart.c ****     GPIO_InitStruct.Mode = GPIO_MODE_AF_PP;
 186:Core/Src/periphs/usart.c ****     GPIO_InitStruct.Pull = GPIO_PULLUP;
 187:Core/Src/periphs/usart.c ****     GPIO_InitStruct.Speed = GPIO_SPEED_FREQ_VERY_HIGH;
 188:Core/Src/periphs/usart.c ****     GPIO_InitStruct.Alternate = GPIO_AF7_USART3;
 189:Core/Src/periphs/usart.c ****     HAL_GPIO_Init(GPIOD, &GPIO_InitStruct);
 190:Core/Src/periphs/usart.c **** 
 191:Core/Src/periphs/usart.c ****     /* USART3 DMA Init */
 192:Core/Src/periphs/usart.c ****     /* USART3_RX Init */
 193:Core/Src/periphs/usart.c ****     hdma_usart3_rx.Instance = DMA1_Stream1;
 194:Core/Src/periphs/usart.c ****     hdma_usart3_rx.Init.Channel = DMA_CHANNEL_4;
 195:Core/Src/periphs/usart.c ****     hdma_usart3_rx.Init.Direction = DMA_PERIPH_TO_MEMORY;
 196:Core/Src/periphs/usart.c ****     hdma_usart3_rx.Init.PeriphInc = DMA_PINC_DISABLE;
 197:Core/Src/periphs/usart.c ****     hdma_usart3_rx.Init.MemInc = DMA_MINC_ENABLE;
 198:Core/Src/periphs/usart.c ****     hdma_usart3_rx.Init.PeriphDataAlignment = DMA_PDATAALIGN_BYTE;
 199:Core/Src/periphs/usart.c ****     hdma_usart3_rx.Init.MemDataAlignment = DMA_MDATAALIGN_BYTE;
 200:Core/Src/periphs/usart.c ****     hdma_usart3_rx.Init.Mode = DMA_CIRCULAR;
 201:Core/Src/periphs/usart.c ****     hdma_usart3_rx.Init.Priority = DMA_PRIORITY_MEDIUM;
 202:Core/Src/periphs/usart.c ****     hdma_usart3_rx.Init.FIFOMode = DMA_FIFOMODE_DISABLE;
 203:Core/Src/periphs/usart.c ****     if (HAL_DMA_Init(&hdma_usart3_rx) != HAL_OK)
 204:Core/Src/periphs/usart.c ****     {
 205:Core/Src/periphs/usart.c ****       Error_Handler();
 206:Core/Src/periphs/usart.c ****     }
 207:Core/Src/periphs/usart.c **** 
 208:Core/Src/periphs/usart.c ****     __HAL_LINKDMA(uartHandle,hdmarx,hdma_usart3_rx);
 209:Core/Src/periphs/usart.c **** 
 210:Core/Src/periphs/usart.c ****   /* USER CODE BEGIN USART3_MspInit 1 */
 211:Core/Src/periphs/usart.c **** 
 212:Core/Src/periphs/usart.c ****   /* USER CODE END USART3_MspInit 1 */
 213:Core/Src/periphs/usart.c ****   }
ARM GAS  C:\Users\073be\AppData\Local\Temp\ccL82i7N.s 			page 9


 214:Core/Src/periphs/usart.c **** }
 248              		.loc 1 214 0
 249 0026 0DB0     		add	sp, sp, #52
 250              	.LCFI5:
 251              		.cfi_remember_state
 252              		.cfi_def_cfa_offset 12
 253              		@ sp needed
 254 0028 30BD     		pop	{r4, r5, pc}
 255              	.LVL8:
 256              	.L25:
 257              	.LCFI6:
 258              		.cfi_restore_state
 259              	.LBB2:
 129:Core/Src/periphs/usart.c ****   
 260              		.loc 1 129 0
 261 002a 0021     		movs	r1, #0
 262 002c 0191     		str	r1, [sp, #4]
 263 002e 494B     		ldr	r3, .L29+12
 264 0030 1A6C     		ldr	r2, [r3, #64]
 265 0032 42F40022 		orr	r2, r2, #524288
 266 0036 1A64     		str	r2, [r3, #64]
 267 0038 1A6C     		ldr	r2, [r3, #64]
 268 003a 02F40022 		and	r2, r2, #524288
 269 003e 0192     		str	r2, [sp, #4]
 270 0040 019A     		ldr	r2, [sp, #4]
 271              	.LBE2:
 272              	.LBB3:
 131:Core/Src/periphs/usart.c ****     /**UART4 GPIO Configuration    
 273              		.loc 1 131 0
 274 0042 0291     		str	r1, [sp, #8]
 275 0044 1A6B     		ldr	r2, [r3, #48]
 276 0046 42F00402 		orr	r2, r2, #4
 277 004a 1A63     		str	r2, [r3, #48]
 278 004c 1B6B     		ldr	r3, [r3, #48]
 279 004e 03F00403 		and	r3, r3, #4
 280 0052 0293     		str	r3, [sp, #8]
 281 0054 029B     		ldr	r3, [sp, #8]
 282              	.LBE3:
 136:Core/Src/periphs/usart.c ****     GPIO_InitStruct.Mode = GPIO_MODE_AF_PP;
 283              		.loc 1 136 0
 284 0056 4FF44063 		mov	r3, #3072
 285 005a 0793     		str	r3, [sp, #28]
 137:Core/Src/periphs/usart.c ****     GPIO_InitStruct.Pull = GPIO_PULLUP;
 286              		.loc 1 137 0
 287 005c 0223     		movs	r3, #2
 288 005e 0893     		str	r3, [sp, #32]
 138:Core/Src/periphs/usart.c ****     GPIO_InitStruct.Speed = GPIO_SPEED_FREQ_VERY_HIGH;
 289              		.loc 1 138 0
 290 0060 0123     		movs	r3, #1
 291 0062 0993     		str	r3, [sp, #36]
 139:Core/Src/periphs/usart.c ****     GPIO_InitStruct.Alternate = GPIO_AF8_UART4;
 292              		.loc 1 139 0
 293 0064 0323     		movs	r3, #3
 294 0066 0A93     		str	r3, [sp, #40]
 140:Core/Src/periphs/usart.c ****     HAL_GPIO_Init(GPIOC, &GPIO_InitStruct);
 295              		.loc 1 140 0
 296 0068 0823     		movs	r3, #8
ARM GAS  C:\Users\073be\AppData\Local\Temp\ccL82i7N.s 			page 10


 297 006a 0B93     		str	r3, [sp, #44]
 141:Core/Src/periphs/usart.c **** 
 298              		.loc 1 141 0
 299 006c 07A9     		add	r1, sp, #28
 300 006e 3A48     		ldr	r0, .L29+16
 301              	.LVL9:
 302 0070 FFF7FEFF 		bl	HAL_GPIO_Init
 303              	.LVL10:
 304 0074 D7E7     		b	.L19
 305              	.LVL11:
 306              	.L26:
 307              	.LBB4:
 153:Core/Src/periphs/usart.c ****   
 308              		.loc 1 153 0
 309 0076 0021     		movs	r1, #0
 310 0078 0391     		str	r1, [sp, #12]
 311 007a 364B     		ldr	r3, .L29+12
 312 007c 1A6C     		ldr	r2, [r3, #64]
 313 007e 42F40032 		orr	r2, r2, #131072
 314 0082 1A64     		str	r2, [r3, #64]
 315 0084 1A6C     		ldr	r2, [r3, #64]
 316 0086 02F40032 		and	r2, r2, #131072
 317 008a 0392     		str	r2, [sp, #12]
 318 008c 039A     		ldr	r2, [sp, #12]
 319              	.LBE4:
 320              	.LBB5:
 155:Core/Src/periphs/usart.c ****     /**USART2 GPIO Configuration    
 321              		.loc 1 155 0
 322 008e 0491     		str	r1, [sp, #16]
 323 0090 1A6B     		ldr	r2, [r3, #48]
 324 0092 42F00802 		orr	r2, r2, #8
 325 0096 1A63     		str	r2, [r3, #48]
 326 0098 1B6B     		ldr	r3, [r3, #48]
 327 009a 03F00803 		and	r3, r3, #8
 328 009e 0493     		str	r3, [sp, #16]
 329 00a0 049B     		ldr	r3, [sp, #16]
 330              	.LBE5:
 160:Core/Src/periphs/usart.c ****     GPIO_InitStruct.Mode = GPIO_MODE_AF_PP;
 331              		.loc 1 160 0
 332 00a2 6023     		movs	r3, #96
 333 00a4 0793     		str	r3, [sp, #28]
 161:Core/Src/periphs/usart.c ****     GPIO_InitStruct.Pull = GPIO_PULLUP;
 334              		.loc 1 161 0
 335 00a6 0223     		movs	r3, #2
 336 00a8 0893     		str	r3, [sp, #32]
 162:Core/Src/periphs/usart.c ****     GPIO_InitStruct.Speed = GPIO_SPEED_FREQ_VERY_HIGH;
 337              		.loc 1 162 0
 338 00aa 0123     		movs	r3, #1
 339 00ac 0993     		str	r3, [sp, #36]
 163:Core/Src/periphs/usart.c ****     GPIO_InitStruct.Alternate = GPIO_AF7_USART2;
 340              		.loc 1 163 0
 341 00ae 0323     		movs	r3, #3
 342 00b0 0A93     		str	r3, [sp, #40]
 164:Core/Src/periphs/usart.c ****     HAL_GPIO_Init(GPIOD, &GPIO_InitStruct);
 343              		.loc 1 164 0
 344 00b2 0723     		movs	r3, #7
 345 00b4 0B93     		str	r3, [sp, #44]
ARM GAS  C:\Users\073be\AppData\Local\Temp\ccL82i7N.s 			page 11


 165:Core/Src/periphs/usart.c **** 
 346              		.loc 1 165 0
 347 00b6 07A9     		add	r1, sp, #28
 348 00b8 2848     		ldr	r0, .L29+20
 349              	.LVL12:
 350 00ba FFF7FEFF 		bl	HAL_GPIO_Init
 351              	.LVL13:
 352 00be B2E7     		b	.L19
 353              	.LVL14:
 354              	.L27:
 355              	.LBB6:
 177:Core/Src/periphs/usart.c ****   
 356              		.loc 1 177 0
 357 00c0 0025     		movs	r5, #0
 358 00c2 0595     		str	r5, [sp, #20]
 359 00c4 234B     		ldr	r3, .L29+12
 360 00c6 1A6C     		ldr	r2, [r3, #64]
 361 00c8 42F48022 		orr	r2, r2, #262144
 362 00cc 1A64     		str	r2, [r3, #64]
 363 00ce 1A6C     		ldr	r2, [r3, #64]
 364 00d0 02F48022 		and	r2, r2, #262144
 365 00d4 0592     		str	r2, [sp, #20]
 366 00d6 059A     		ldr	r2, [sp, #20]
 367              	.LBE6:
 368              	.LBB7:
 179:Core/Src/periphs/usart.c ****     /**USART3 GPIO Configuration    
 369              		.loc 1 179 0
 370 00d8 0695     		str	r5, [sp, #24]
 371 00da 1A6B     		ldr	r2, [r3, #48]
 372 00dc 42F00802 		orr	r2, r2, #8
 373 00e0 1A63     		str	r2, [r3, #48]
 374 00e2 1B6B     		ldr	r3, [r3, #48]
 375 00e4 03F00803 		and	r3, r3, #8
 376 00e8 0693     		str	r3, [sp, #24]
 377 00ea 069B     		ldr	r3, [sp, #24]
 378              	.LBE7:
 184:Core/Src/periphs/usart.c ****     GPIO_InitStruct.Mode = GPIO_MODE_AF_PP;
 379              		.loc 1 184 0
 380 00ec 4FF44073 		mov	r3, #768
 381 00f0 0793     		str	r3, [sp, #28]
 185:Core/Src/periphs/usart.c ****     GPIO_InitStruct.Pull = GPIO_PULLUP;
 382              		.loc 1 185 0
 383 00f2 0223     		movs	r3, #2
 384 00f4 0893     		str	r3, [sp, #32]
 186:Core/Src/periphs/usart.c ****     GPIO_InitStruct.Speed = GPIO_SPEED_FREQ_VERY_HIGH;
 385              		.loc 1 186 0
 386 00f6 0123     		movs	r3, #1
 387 00f8 0993     		str	r3, [sp, #36]
 187:Core/Src/periphs/usart.c ****     GPIO_InitStruct.Alternate = GPIO_AF7_USART3;
 388              		.loc 1 187 0
 389 00fa 0323     		movs	r3, #3
 390 00fc 0A93     		str	r3, [sp, #40]
 188:Core/Src/periphs/usart.c ****     HAL_GPIO_Init(GPIOD, &GPIO_InitStruct);
 391              		.loc 1 188 0
 392 00fe 0723     		movs	r3, #7
 393 0100 0B93     		str	r3, [sp, #44]
 189:Core/Src/periphs/usart.c **** 
ARM GAS  C:\Users\073be\AppData\Local\Temp\ccL82i7N.s 			page 12


 394              		.loc 1 189 0
 395 0102 07A9     		add	r1, sp, #28
 396 0104 1548     		ldr	r0, .L29+20
 397              	.LVL15:
 398 0106 FFF7FEFF 		bl	HAL_GPIO_Init
 399              	.LVL16:
 193:Core/Src/periphs/usart.c ****     hdma_usart3_rx.Init.Channel = DMA_CHANNEL_4;
 400              		.loc 1 193 0
 401 010a 1548     		ldr	r0, .L29+24
 402 010c 154B     		ldr	r3, .L29+28
 403 010e 0360     		str	r3, [r0]
 194:Core/Src/periphs/usart.c ****     hdma_usart3_rx.Init.Direction = DMA_PERIPH_TO_MEMORY;
 404              		.loc 1 194 0
 405 0110 4FF00063 		mov	r3, #134217728
 406 0114 4360     		str	r3, [r0, #4]
 195:Core/Src/periphs/usart.c ****     hdma_usart3_rx.Init.PeriphInc = DMA_PINC_DISABLE;
 407              		.loc 1 195 0
 408 0116 8560     		str	r5, [r0, #8]
 196:Core/Src/periphs/usart.c ****     hdma_usart3_rx.Init.MemInc = DMA_MINC_ENABLE;
 409              		.loc 1 196 0
 410 0118 C560     		str	r5, [r0, #12]
 197:Core/Src/periphs/usart.c ****     hdma_usart3_rx.Init.PeriphDataAlignment = DMA_PDATAALIGN_BYTE;
 411              		.loc 1 197 0
 412 011a 4FF48063 		mov	r3, #1024
 413 011e 0361     		str	r3, [r0, #16]
 198:Core/Src/periphs/usart.c ****     hdma_usart3_rx.Init.MemDataAlignment = DMA_MDATAALIGN_BYTE;
 414              		.loc 1 198 0
 415 0120 4561     		str	r5, [r0, #20]
 199:Core/Src/periphs/usart.c ****     hdma_usart3_rx.Init.Mode = DMA_CIRCULAR;
 416              		.loc 1 199 0
 417 0122 8561     		str	r5, [r0, #24]
 200:Core/Src/periphs/usart.c ****     hdma_usart3_rx.Init.Priority = DMA_PRIORITY_MEDIUM;
 418              		.loc 1 200 0
 419 0124 4FF48073 		mov	r3, #256
 420 0128 C361     		str	r3, [r0, #28]
 201:Core/Src/periphs/usart.c ****     hdma_usart3_rx.Init.FIFOMode = DMA_FIFOMODE_DISABLE;
 421              		.loc 1 201 0
 422 012a 4FF48033 		mov	r3, #65536
 423 012e 0362     		str	r3, [r0, #32]
 202:Core/Src/periphs/usart.c ****     if (HAL_DMA_Init(&hdma_usart3_rx) != HAL_OK)
 424              		.loc 1 202 0
 425 0130 4562     		str	r5, [r0, #36]
 203:Core/Src/periphs/usart.c ****     {
 426              		.loc 1 203 0
 427 0132 FFF7FEFF 		bl	HAL_DMA_Init
 428              	.LVL17:
 429 0136 18B9     		cbnz	r0, .L28
 430              	.L23:
 208:Core/Src/periphs/usart.c **** 
 431              		.loc 1 208 0
 432 0138 094B     		ldr	r3, .L29+24
 433 013a 6363     		str	r3, [r4, #52]
 434 013c 9C63     		str	r4, [r3, #56]
 435              		.loc 1 214 0
 436 013e 72E7     		b	.L19
 437              	.L28:
 205:Core/Src/periphs/usart.c ****     }
ARM GAS  C:\Users\073be\AppData\Local\Temp\ccL82i7N.s 			page 13


 438              		.loc 1 205 0
 439 0140 FFF7FEFF 		bl	Error_Handler
 440              	.LVL18:
 441 0144 F8E7     		b	.L23
 442              	.L30:
 443 0146 00BF     		.align	2
 444              	.L29:
 445 0148 004C0040 		.word	1073761280
 446 014c 00440040 		.word	1073759232
 447 0150 00480040 		.word	1073760256
 448 0154 00380240 		.word	1073887232
 449 0158 00080240 		.word	1073874944
 450 015c 000C0240 		.word	1073875968
 451 0160 00000000 		.word	hdma_usart3_rx
 452 0164 28600240 		.word	1073897512
 453              		.cfi_endproc
 454              	.LFE129:
 456              		.section	.text.HAL_UART_MspDeInit,"ax",%progbits
 457              		.align	1
 458              		.global	HAL_UART_MspDeInit
 459              		.syntax unified
 460              		.thumb
 461              		.thumb_func
 462              		.fpu fpv4-sp-d16
 464              	HAL_UART_MspDeInit:
 465              	.LFB130:
 215:Core/Src/periphs/usart.c **** 
 216:Core/Src/periphs/usart.c **** void HAL_UART_MspDeInit(UART_HandleTypeDef* uartHandle)
 217:Core/Src/periphs/usart.c **** {
 466              		.loc 1 217 0
 467              		.cfi_startproc
 468              		@ args = 0, pretend = 0, frame = 0
 469              		@ frame_needed = 0, uses_anonymous_args = 0
 470              	.LVL19:
 471 0000 10B5     		push	{r4, lr}
 472              	.LCFI7:
 473              		.cfi_def_cfa_offset 8
 474              		.cfi_offset 4, -8
 475              		.cfi_offset 14, -4
 218:Core/Src/periphs/usart.c **** 
 219:Core/Src/periphs/usart.c ****   if(uartHandle->Instance==UART4)
 476              		.loc 1 219 0
 477 0002 0368     		ldr	r3, [r0]
 478 0004 184A     		ldr	r2, .L39
 479 0006 9342     		cmp	r3, r2
 480 0008 07D0     		beq	.L36
 481 000a 0446     		mov	r4, r0
 220:Core/Src/periphs/usart.c ****   {
 221:Core/Src/periphs/usart.c ****   /* USER CODE BEGIN UART4_MspDeInit 0 */
 222:Core/Src/periphs/usart.c **** 
 223:Core/Src/periphs/usart.c ****   /* USER CODE END UART4_MspDeInit 0 */
 224:Core/Src/periphs/usart.c ****     /* Peripheral clock disable */
 225:Core/Src/periphs/usart.c ****     __HAL_RCC_UART4_CLK_DISABLE();
 226:Core/Src/periphs/usart.c ****   
 227:Core/Src/periphs/usart.c ****     /**UART4 GPIO Configuration    
 228:Core/Src/periphs/usart.c ****     PC10     ------> UART4_TX
 229:Core/Src/periphs/usart.c ****     PC11     ------> UART4_RX 
ARM GAS  C:\Users\073be\AppData\Local\Temp\ccL82i7N.s 			page 14


 230:Core/Src/periphs/usart.c ****     */
 231:Core/Src/periphs/usart.c ****     HAL_GPIO_DeInit(GPIOC, GPIO_PIN_10|GPIO_PIN_11);
 232:Core/Src/periphs/usart.c **** 
 233:Core/Src/periphs/usart.c ****   /* USER CODE BEGIN UART4_MspDeInit 1 */
 234:Core/Src/periphs/usart.c **** 
 235:Core/Src/periphs/usart.c ****   /* USER CODE END UART4_MspDeInit 1 */
 236:Core/Src/periphs/usart.c ****   }
 237:Core/Src/periphs/usart.c ****   else if(uartHandle->Instance==USART2)
 482              		.loc 1 237 0
 483 000c 174A     		ldr	r2, .L39+4
 484 000e 9342     		cmp	r3, r2
 485 0010 0FD0     		beq	.L37
 238:Core/Src/periphs/usart.c ****   {
 239:Core/Src/periphs/usart.c ****   /* USER CODE BEGIN USART2_MspDeInit 0 */
 240:Core/Src/periphs/usart.c **** 
 241:Core/Src/periphs/usart.c ****   /* USER CODE END USART2_MspDeInit 0 */
 242:Core/Src/periphs/usart.c ****     /* Peripheral clock disable */
 243:Core/Src/periphs/usart.c ****     __HAL_RCC_USART2_CLK_DISABLE();
 244:Core/Src/periphs/usart.c ****   
 245:Core/Src/periphs/usart.c ****     /**USART2 GPIO Configuration    
 246:Core/Src/periphs/usart.c ****     PD5     ------> USART2_TX
 247:Core/Src/periphs/usart.c ****     PD6     ------> USART2_RX 
 248:Core/Src/periphs/usart.c ****     */
 249:Core/Src/periphs/usart.c ****     HAL_GPIO_DeInit(GPIOD, GPIO_PIN_5|GPIO_PIN_6);
 250:Core/Src/periphs/usart.c **** 
 251:Core/Src/periphs/usart.c ****   /* USER CODE BEGIN USART2_MspDeInit 1 */
 252:Core/Src/periphs/usart.c **** 
 253:Core/Src/periphs/usart.c ****   /* USER CODE END USART2_MspDeInit 1 */
 254:Core/Src/periphs/usart.c ****   }
 255:Core/Src/periphs/usart.c ****   else if(uartHandle->Instance==USART3)
 486              		.loc 1 255 0
 487 0012 174A     		ldr	r2, .L39+8
 488 0014 9342     		cmp	r3, r2
 489 0016 17D0     		beq	.L38
 490              	.LVL20:
 491              	.L31:
 256:Core/Src/periphs/usart.c ****   {
 257:Core/Src/periphs/usart.c ****   /* USER CODE BEGIN USART3_MspDeInit 0 */
 258:Core/Src/periphs/usart.c **** 
 259:Core/Src/periphs/usart.c ****   /* USER CODE END USART3_MspDeInit 0 */
 260:Core/Src/periphs/usart.c ****     /* Peripheral clock disable */
 261:Core/Src/periphs/usart.c ****     __HAL_RCC_USART3_CLK_DISABLE();
 262:Core/Src/periphs/usart.c ****   
 263:Core/Src/periphs/usart.c ****     /**USART3 GPIO Configuration    
 264:Core/Src/periphs/usart.c ****     PD8     ------> USART3_TX
 265:Core/Src/periphs/usart.c ****     PD9     ------> USART3_RX 
 266:Core/Src/periphs/usart.c ****     */
 267:Core/Src/periphs/usart.c ****     HAL_GPIO_DeInit(GPIOD, GPIO_PIN_8|GPIO_PIN_9);
 268:Core/Src/periphs/usart.c **** 
 269:Core/Src/periphs/usart.c ****     /* USART3 DMA DeInit */
 270:Core/Src/periphs/usart.c ****     HAL_DMA_DeInit(uartHandle->hdmarx);
 271:Core/Src/periphs/usart.c ****   /* USER CODE BEGIN USART3_MspDeInit 1 */
 272:Core/Src/periphs/usart.c **** 
 273:Core/Src/periphs/usart.c ****   /* USER CODE END USART3_MspDeInit 1 */
 274:Core/Src/periphs/usart.c ****   }
 275:Core/Src/periphs/usart.c **** } 
 492              		.loc 1 275 0
ARM GAS  C:\Users\073be\AppData\Local\Temp\ccL82i7N.s 			page 15


 493 0018 10BD     		pop	{r4, pc}
 494              	.LVL21:
 495              	.L36:
 225:Core/Src/periphs/usart.c ****   
 496              		.loc 1 225 0
 497 001a 02F5F632 		add	r2, r2, #125952
 498 001e 136C     		ldr	r3, [r2, #64]
 499 0020 23F40023 		bic	r3, r3, #524288
 500 0024 1364     		str	r3, [r2, #64]
 231:Core/Src/periphs/usart.c **** 
 501              		.loc 1 231 0
 502 0026 4FF44061 		mov	r1, #3072
 503 002a 1248     		ldr	r0, .L39+12
 504              	.LVL22:
 505 002c FFF7FEFF 		bl	HAL_GPIO_DeInit
 506              	.LVL23:
 507 0030 F2E7     		b	.L31
 508              	.LVL24:
 509              	.L37:
 243:Core/Src/periphs/usart.c ****   
 510              		.loc 1 243 0
 511 0032 02F5FA32 		add	r2, r2, #128000
 512 0036 136C     		ldr	r3, [r2, #64]
 513 0038 23F40033 		bic	r3, r3, #131072
 514 003c 1364     		str	r3, [r2, #64]
 249:Core/Src/periphs/usart.c **** 
 515              		.loc 1 249 0
 516 003e 6021     		movs	r1, #96
 517 0040 0D48     		ldr	r0, .L39+16
 518              	.LVL25:
 519 0042 FFF7FEFF 		bl	HAL_GPIO_DeInit
 520              	.LVL26:
 521 0046 E7E7     		b	.L31
 522              	.LVL27:
 523              	.L38:
 261:Core/Src/periphs/usart.c ****   
 524              		.loc 1 261 0
 525 0048 02F5F832 		add	r2, r2, #126976
 526 004c 136C     		ldr	r3, [r2, #64]
 527 004e 23F48023 		bic	r3, r3, #262144
 528 0052 1364     		str	r3, [r2, #64]
 267:Core/Src/periphs/usart.c **** 
 529              		.loc 1 267 0
 530 0054 4FF44071 		mov	r1, #768
 531 0058 0748     		ldr	r0, .L39+16
 532              	.LVL28:
 533 005a FFF7FEFF 		bl	HAL_GPIO_DeInit
 534              	.LVL29:
 270:Core/Src/periphs/usart.c ****   /* USER CODE BEGIN USART3_MspDeInit 1 */
 535              		.loc 1 270 0
 536 005e 606B     		ldr	r0, [r4, #52]
 537 0060 FFF7FEFF 		bl	HAL_DMA_DeInit
 538              	.LVL30:
 539              		.loc 1 275 0
 540 0064 D8E7     		b	.L31
 541              	.L40:
 542 0066 00BF     		.align	2
ARM GAS  C:\Users\073be\AppData\Local\Temp\ccL82i7N.s 			page 16


 543              	.L39:
 544 0068 004C0040 		.word	1073761280
 545 006c 00440040 		.word	1073759232
 546 0070 00480040 		.word	1073760256
 547 0074 00080240 		.word	1073874944
 548 0078 000C0240 		.word	1073875968
 549              		.cfi_endproc
 550              	.LFE130:
 552              		.comm	hdma_usart3_rx,96,4
 553              		.comm	huart3,64,4
 554              		.comm	huart2,64,4
 555              		.comm	huart4,64,4
 556              		.text
 557              	.Letext0:
 558              		.file 2 "c:\\program files (x86)\\gnu tools arm embedded\\7 2017-q4-major\\arm-none-eabi\\include\
 559              		.file 3 "c:\\program files (x86)\\gnu tools arm embedded\\7 2017-q4-major\\arm-none-eabi\\include\
 560              		.file 4 "C:/Users/073be/STM32Cube/Repository/STM32Cube_FW_F4_V1.23.0/Drivers/CMSIS/Include/core_cm
 561              		.file 5 "C:/Users/073be/STM32Cube/Repository/STM32Cube_FW_F4_V1.23.0/Drivers/CMSIS/Device/ST/STM32
 562              		.file 6 "C:/Users/073be/STM32Cube/Repository/STM32Cube_FW_F4_V1.23.0/Drivers/CMSIS/Device/ST/STM32
 563              		.file 7 "c:\\program files (x86)\\gnu tools arm embedded\\7 2017-q4-major\\arm-none-eabi\\include\
 564              		.file 8 "c:\\program files (x86)\\gnu tools arm embedded\\7 2017-q4-major\\arm-none-eabi\\include\
 565              		.file 9 "c:\\program files (x86)\\gnu tools arm embedded\\7 2017-q4-major\\lib\\gcc\\arm-none-eabi
 566              		.file 10 "c:\\program files (x86)\\gnu tools arm embedded\\7 2017-q4-major\\arm-none-eabi\\include
 567              		.file 11 "C:/Users/073be/STM32Cube/Repository/STM32Cube_FW_F4_V1.23.0/Drivers/STM32F4xx_HAL_Driver
 568              		.file 12 "C:/Users/073be/STM32Cube/Repository/STM32Cube_FW_F4_V1.23.0/Drivers/STM32F4xx_HAL_Driver
 569              		.file 13 "C:/Users/073be/STM32Cube/Repository/STM32Cube_FW_F4_V1.23.0/Drivers/STM32F4xx_HAL_Driver
 570              		.file 14 "C:/Users/073be/STM32Cube/Repository/STM32Cube_FW_F4_V1.23.0/Drivers/STM32F4xx_HAL_Driver
 571              		.file 15 "Core/Inc\\periphs/usart.h"
 572              		.file 16 "Core/Inc/main.h"
ARM GAS  C:\Users\073be\AppData\Local\Temp\ccL82i7N.s 			page 17

